Archive member included because of file (symbol)

/usr/local/xenon/usr/lib/libxenon.a(startup_from_xell.o)
                              (_start)
/usr/local/xenon/usr/lib/libxenon.a(ata.o)
                              main.o (xenon_ata_init)
/usr/local/xenon/usr/lib/libxenon.a(input.o)
                              main.o (get_controller_data)
/usr/local/xenon/usr/lib/libxenon.a(newlib.o)
                              (read)
/usr/local/xenon/usr/lib/libxenon.a(atomic.o)
                              /usr/local/xenon/usr/lib/libxenon.a(startup_from_xell.o) (atomic_clearset)
/usr/local/xenon/usr/lib/libxenon.a(cache.o)
                              /usr/local/xenon/usr/lib/libxenon.a(ata.o) (memdcbt)
/usr/local/xenon/usr/lib/libxenon.a(except.o)
                              (exc_base)
/usr/local/xenon/usr/lib/libxenon.a(vm.o)
                              /usr/local/xenon/usr/lib/libxenon.a(except.o) (pagetable)
/usr/local/xenon/usr/lib/libxenon.a(time.o)
                              main.o (time)
/usr/local/xenon/usr/lib/libxenon.a(usbmain.o)
                              main.o (usb_init)
/usr/local/xenon/usr/lib/libxenon.a(tinyehci.o)
                              /usr/local/xenon/usr/lib/libxenon.a(usbmain.o) (USBStorage_Init)
/usr/local/xenon/usr/lib/libxenon.a(xenon_smc.o)
                              Tools.o (xenon_smc_power_shutdown)
/usr/local/xenon/usr/lib/libxenon.a(xenon_uart.o)
                              /usr/local/xenon/usr/lib/libxenon.a(newlib.o) (putch)
/usr/local/xenon/usr/lib/libxenon.a(edram.o)
                              Utils.o (edram_init)
/usr/local/xenon/usr/lib/libxenon.a(xe.o)
                              /usr/local/xenon/usr/lib/libxenon.a(edram.o) (Xe_pSyncToDevice)
/usr/local/xenon/usr/lib/libxenon.a(xenos.o)
                              /usr/local/xenon/usr/lib/libxenon.a(edram.o) (xenos_write32)
/usr/local/xenon/usr/lib/libxenon.a(diskio.o)
                              /usr/local/xenon/usr/lib/libxenon.a(ata.o) (register_bdev)
/usr/local/xenon/usr/lib/libxenon.a(fat.o)
                              /usr/local/xenon/usr/lib/libxenon.a(diskio.o) (vfs_fat_mount_ops)
/usr/local/xenon/usr/lib/libxenon.a(fat_rb.o)
                              /usr/local/xenon/usr/lib/libxenon.a(fat.o) (fat_init)
/usr/local/xenon/usr/lib/libxenon.a(file_rb.o)
                              /usr/local/xenon/usr/lib/libxenon.a(fat.o) (rb_close)
/usr/local/xenon/usr/lib/libxenon.a(dir_rb.o)
                              /usr/local/xenon/usr/lib/libxenon.a(fat.o) (rb_opendir)
/usr/local/xenon/usr/lib/libxenon.a(iso9660.o)
                              /usr/local/xenon/usr/lib/libxenon.a(diskio.o) (vfs_iso9660_mount_ops)
/usr/local/xenon/usr/lib/libxenon.a(lib_malloc.o)
                              /usr/local/xenon/usr/lib/libxenon.a(xe.o) (kmeminit)
/usr/local/xenon/usr/lib/libxenon.a(io.o)
                              /usr/local/xenon/usr/lib/libxenon.a(usbmain.o) (read32)
/usr/local/xenon/usr/lib/libxenon.a(ohci.o)
                              /usr/local/xenon/usr/lib/libxenon.a(usbmain.o) (ohci_driver)
/usr/local/xenon/usr/lib/libxenon.a(usbd.o)
                              /usr/local/xenon/usr/lib/libxenon.a(usbmain.o) (usb_poll)
/usr/local/xenon/usr/lib/libxenon.a(usbdevs.o)
                              /usr/local/xenon/usr/lib/libxenon.a(usbd.o) (usb_find_driver)
/usr/local/xenon/usr/lib/libxenon.a(usbhid.o)
                              /usr/local/xenon/usr/lib/libxenon.a(usbdevs.o) (usbhid_driver)
/usr/local/xenon/usr/lib/libxenon.a(usbhub.o)
                              /usr/local/xenon/usr/lib/libxenon.a(usbd.o) (usb_scan)
/usr/local/xenon/usr/lib/libxenon.a(usb_os.o)
                              /usr/local/xenon/usr/lib/libxenon.a(tinyehci.o) (ehci_maligned)
/usr/local/xenon/usr/lib/libxenon.a(unicode_rb.o)
                              /usr/local/xenon/usr/lib/libxenon.a(fat_rb.o) (utf8encode)
/usr/local/xenon/usr/lib/libxenon.a(xenon_gpio.o)
                              /usr/local/xenon/usr/lib/libxenon.a(xenos.o) (xenon_gpio_set_oe)
/usr/local/xenon/usr/lib/libxenon.a(xenon_config.o)
                              /usr/local/xenon/usr/lib/libxenon.a(xenos.o) (xenon_config_init)
/usr/local/xenon/usr/lib/libxenon.a(ucode.o)
                              /usr/local/xenon/usr/lib/libxenon.a(xe.o) (xenos_ucode1)
/usr/local/xenon/usr/lib/libxenon.a(disk_rb.o)
                              /usr/local/xenon/usr/lib/libxenon.a(fat_rb.o) (storage_read_sectors)
/usr/local/xenon/usr/lib/libxenon.a(lib_queue.o)
                              /usr/local/xenon/usr/lib/libxenon.a(ohci.o) (q_enqueue)
/usr/local/xenon/usr/lib/libxenon.a(usbctrl.o)
                              /usr/local/xenon/usr/lib/libxenon.a(usbdevs.o) (usbctrl_driver)
/usr/local/xenon/usr/lib/libxenon.a(usbdebug.o)
                              /usr/local/xenon/usr/lib/libxenon.a(usbhub.o) (usb_dbg_dumpportstatus)
/usr/local/xenon/usr/lib/libxenon.a(xenon_sfcx.o)
                              /usr/local/xenon/usr/lib/libxenon.a(xenon_config.o) (sfcx_read_page)
/usr/local/xenon/usr/lib/libpng.a(libpng15_la-png.o)
                              Utils.o (png_create_info_struct)
/usr/local/xenon/usr/lib/libpng.a(libpng15_la-pngerror.o)
                              /usr/local/xenon/usr/lib/libpng.a(libpng15_la-png.o) (png_error)
/usr/local/xenon/usr/lib/libpng.a(libpng15_la-pngmem.o)
                              /usr/local/xenon/usr/lib/libpng.a(libpng15_la-png.o) (png_create_struct)
/usr/local/xenon/usr/lib/libpng.a(libpng15_la-pngread.o)
                              Utils.o (png_create_read_struct)
/usr/local/xenon/usr/lib/libpng.a(libpng15_la-pngrio.o)
                              Utils.o (png_set_read_fn)
/usr/local/xenon/usr/lib/libpng.a(libpng15_la-pngrtran.o)
                              /usr/local/xenon/usr/lib/libpng.a(libpng15_la-pngread.o) (png_set_strip_16)
/usr/local/xenon/usr/lib/libpng.a(libpng15_la-pngrutil.o)
                              /usr/local/xenon/usr/lib/libpng.a(libpng15_la-pngread.o) (png_read_sig)
/usr/local/xenon/usr/lib/libpng.a(libpng15_la-pngset.o)
                              /usr/local/xenon/usr/lib/libpng.a(libpng15_la-pngrutil.o) (png_set_bKGD)
/usr/local/xenon/usr/lib/libpng.a(libpng15_la-pngtrans.o)
                              /usr/local/xenon/usr/lib/libpng.a(libpng15_la-pngread.o) (png_set_bgr)
/usr/local/xenon/usr/lib/libpng.a(libpng15_la-pngget.o)
                              /usr/local/xenon/usr/lib/libpng.a(libpng15_la-pngread.o) (png_get_valid)
/usr/local/xenon/usr/lib/libz.a(crc32.o)
                              /usr/local/xenon/usr/lib/libpng.a(libpng15_la-png.o) (crc32)
/usr/local/xenon/usr/lib/libz.a(inflate.o)
                              /usr/local/xenon/usr/lib/libpng.a(libpng15_la-png.o) (inflateReset)
/usr/local/xenon/usr/lib/libz.a(inftrees.o)
                              /usr/local/xenon/usr/lib/libz.a(inflate.o) (inflate_table)
/usr/local/xenon/usr/lib/libz.a(zutil.o)
                              /usr/local/xenon/usr/lib/libz.a(inflate.o) (zcalloc)
/usr/local/xenon/usr/lib/libz.a(adler32.o)
                              /usr/local/xenon/usr/lib/libz.a(inflate.o) (adler32)
/usr/local/xenon/usr/lib/libz.a(inffast.o)
                              /usr/local/xenon/usr/lib/libz.a(inflate.o) (inflate_fast)
/usr/local/xenon/lib/gcc/xenon/4.6.0/../../../../xenon/lib/../lib/libstdc++.a(new_opv.o)
                              Console.o (_Znaj)
/usr/local/xenon/lib/gcc/xenon/4.6.0/../../../../xenon/lib/../lib/libstdc++.a(eh_personality.o)
                              /usr/local/xenon/lib/gcc/xenon/4.6.0/../../../../xenon/lib/../lib/libstdc++.a(new_opv.o) (__gxx_personality_v0)
/usr/local/xenon/lib/gcc/xenon/4.6.0/../../../../xenon/lib/../lib/libstdc++.a(eh_alloc.o)
                              /usr/local/xenon/lib/gcc/xenon/4.6.0/../../../../xenon/lib/../lib/libstdc++.a(eh_personality.o) (__cxa_allocate_exception)
/usr/local/xenon/lib/gcc/xenon/4.6.0/../../../../xenon/lib/../lib/libstdc++.a(bad_alloc.o)
                              /usr/local/xenon/lib/gcc/xenon/4.6.0/../../../../xenon/lib/../lib/libstdc++.a(new_opv.o) (_ZTISt9bad_alloc)
/usr/local/xenon/lib/gcc/xenon/4.6.0/../../../../xenon/lib/../lib/libstdc++.a(del_op.o)
                              /usr/local/xenon/lib/gcc/xenon/4.6.0/../../../../xenon/lib/../lib/libstdc++.a(bad_alloc.o) (_ZdlPv)
/usr/local/xenon/lib/gcc/xenon/4.6.0/../../../../xenon/lib/../lib/libstdc++.a(eh_catch.o)
                              /usr/local/xenon/lib/gcc/xenon/4.6.0/../../../../xenon/lib/../lib/libstdc++.a(eh_personality.o) (__cxa_begin_catch)
/usr/local/xenon/lib/gcc/xenon/4.6.0/../../../../xenon/lib/../lib/libstdc++.a(new_op.o)
                              /usr/local/xenon/lib/gcc/xenon/4.6.0/../../../../xenon/lib/../lib/libstdc++.a(new_opv.o) (_Znwj)
/usr/local/xenon/lib/gcc/xenon/4.6.0/../../../../xenon/lib/../lib/libstdc++.a(eh_terminate.o)
                              /usr/local/xenon/lib/gcc/xenon/4.6.0/../../../../xenon/lib/../lib/libstdc++.a(eh_personality.o) (_ZN10__cxxabiv111__terminateEPFvvE)
/usr/local/xenon/lib/gcc/xenon/4.6.0/../../../../xenon/lib/../lib/libstdc++.a(eh_exception.o)
                              /usr/local/xenon/lib/gcc/xenon/4.6.0/../../../../xenon/lib/../lib/libstdc++.a(bad_alloc.o) (_ZNSt9exceptionD2Ev)
/usr/local/xenon/lib/gcc/xenon/4.6.0/../../../../xenon/lib/../lib/libstdc++.a(eh_call.o)
                              /usr/local/xenon/lib/gcc/xenon/4.6.0/../../../../xenon/lib/../lib/libstdc++.a(eh_personality.o) (__cxa_call_terminate)
/usr/local/xenon/lib/gcc/xenon/4.6.0/../../../../xenon/lib/../lib/libstdc++.a(eh_globals.o)
                              /usr/local/xenon/lib/gcc/xenon/4.6.0/../../../../xenon/lib/../lib/libstdc++.a(eh_personality.o) (__cxa_get_globals_fast)
/usr/local/xenon/lib/gcc/xenon/4.6.0/../../../../xenon/lib/../lib/libstdc++.a(class_type_info.o)
                              /usr/local/xenon/lib/gcc/xenon/4.6.0/../../../../xenon/lib/../lib/libstdc++.a(eh_exception.o) (_ZTVN10__cxxabiv117__class_type_infoE)
/usr/local/xenon/lib/gcc/xenon/4.6.0/../../../../xenon/lib/../lib/libstdc++.a(eh_term_handler.o)
                              /usr/local/xenon/lib/gcc/xenon/4.6.0/../../../../xenon/lib/../lib/libstdc++.a(eh_terminate.o) (_ZN10__cxxabiv119__terminate_handlerE)
/usr/local/xenon/lib/gcc/xenon/4.6.0/../../../../xenon/lib/../lib/libstdc++.a(si_class_type_info.o)
                              /usr/local/xenon/lib/gcc/xenon/4.6.0/../../../../xenon/lib/../lib/libstdc++.a(bad_alloc.o) (_ZTVN10__cxxabiv120__si_class_type_infoE)
/usr/local/xenon/lib/gcc/xenon/4.6.0/../../../../xenon/lib/../lib/libstdc++.a(eh_unex_handler.o)
                              /usr/local/xenon/lib/gcc/xenon/4.6.0/../../../../xenon/lib/../lib/libstdc++.a(eh_terminate.o) (_ZN10__cxxabiv120__unexpected_handlerE)
/usr/local/xenon/lib/gcc/xenon/4.6.0/../../../../xenon/lib/../lib/libstdc++.a(tinfo.o)
                              /usr/local/xenon/lib/gcc/xenon/4.6.0/../../../../xenon/lib/../lib/libstdc++.a(class_type_info.o) (_ZNSt9type_infoD2Ev)
/usr/local/xenon/lib/gcc/xenon/4.6.0/../../../../xenon/lib/../lib/libstdc++.a(eh_throw.o)
                              /usr/local/xenon/lib/gcc/xenon/4.6.0/../../../../xenon/lib/../lib/libstdc++.a(eh_personality.o) (__cxa_throw)
/usr/local/xenon/lib/gcc/xenon/4.6.0/../../../../xenon/lib/../lib/libstdc++.a(pure.o)
                              /usr/local/xenon/lib/gcc/xenon/4.6.0/../../../../xenon/lib/../lib/libstdc++.a(eh_exception.o) (__cxa_pure_virtual)
/usr/local/xenon/lib/gcc/xenon/4.6.0/../../../../xenon/lib/../lib/libstdc++.a(vterminate.o)
                              /usr/local/xenon/lib/gcc/xenon/4.6.0/../../../../xenon/lib/../lib/libstdc++.a(eh_term_handler.o) (_ZN9__gnu_cxx27__verbose_terminate_handlerEv)
/usr/local/xenon/lib/gcc/xenon/4.6.0/../../../../xenon/lib/../lib/libstdc++.a(new_handler.o)
                              /usr/local/xenon/lib/gcc/xenon/4.6.0/../../../../xenon/lib/../lib/libstdc++.a(new_op.o) (__new_handler)
/usr/local/xenon/lib/gcc/xenon/4.6.0/../../../../xenon/lib/../lib/libstdc++.a(cp-demangle.o)
                              /usr/local/xenon/lib/gcc/xenon/4.6.0/../../../../xenon/lib/../lib/libstdc++.a(vterminate.o) (__cxa_demangle)
/usr/local/xenon/lib/gcc/xenon/4.6.0/../../../../xenon/lib/../lib/libstdc++.a(eh_type.o)
                              /usr/local/xenon/lib/gcc/xenon/4.6.0/../../../../xenon/lib/../lib/libstdc++.a(vterminate.o) (__cxa_current_exception_type)
/usr/local/xenon/xenon/lib/32/libm.a(lib_a-s_floor.o)
                              /usr/local/xenon/usr/lib/libpng.a(libpng15_la-png.o) (floor)
/usr/local/xenon/xenon/lib/32/libm.a(lib_a-s_frexp.o)
                              /usr/local/xenon/usr/lib/libpng.a(libpng15_la-png.o) (frexp)
/usr/local/xenon/xenon/lib/32/libm.a(lib_a-s_modf.o)
                              /usr/local/xenon/usr/lib/libpng.a(libpng15_la-png.o) (modf)
/usr/local/xenon/xenon/lib/32/libm.a(lib_a-s_trunc.o)
                              /usr/local/xenon/usr/lib/libpng.a(libpng15_la-png.o) (trunc)
/usr/local/xenon/xenon/lib/32/libm.a(lib_a-w_pow.o)
                              /usr/local/xenon/usr/lib/libpng.a(libpng15_la-png.o) (pow)
/usr/local/xenon/xenon/lib/32/libm.a(lib_a-e_pow.o)
                              /usr/local/xenon/xenon/lib/32/libm.a(lib_a-w_pow.o) (__ieee754_pow)
/usr/local/xenon/xenon/lib/32/libm.a(lib_a-e_sqrt.o)
                              /usr/local/xenon/xenon/lib/32/libm.a(lib_a-e_pow.o) (__ieee754_sqrt)
/usr/local/xenon/xenon/lib/32/libm.a(lib_a-s_fabs.o)
                              /usr/local/xenon/xenon/lib/32/libm.a(lib_a-e_pow.o) (fabs)
/usr/local/xenon/xenon/lib/32/libm.a(lib_a-s_finite.o)
                              /usr/local/xenon/xenon/lib/32/libm.a(lib_a-w_pow.o) (finite)
/usr/local/xenon/xenon/lib/32/libm.a(lib_a-s_isnand.o)
                              /usr/local/xenon/xenon/lib/32/libm.a(lib_a-w_pow.o) (__isnand)
/usr/local/xenon/xenon/lib/32/libm.a(lib_a-s_lib_ver.o)
                              /usr/local/xenon/xenon/lib/32/libm.a(lib_a-w_pow.o) (__fdlib_version)
/usr/local/xenon/xenon/lib/32/libm.a(lib_a-s_matherr.o)
                              /usr/local/xenon/xenon/lib/32/libm.a(lib_a-w_pow.o) (matherr)
/usr/local/xenon/xenon/lib/32/libm.a(lib_a-s_nan.o)
                              /usr/local/xenon/xenon/lib/32/libm.a(lib_a-e_pow.o) (nan)
/usr/local/xenon/xenon/lib/32/libm.a(lib_a-s_rint.o)
                              /usr/local/xenon/xenon/lib/32/libm.a(lib_a-w_pow.o) (rint)
/usr/local/xenon/xenon/lib/32/libm.a(lib_a-s_scalbn.o)
                              /usr/local/xenon/xenon/lib/32/libm.a(lib_a-e_pow.o) (scalbn)
/usr/local/xenon/xenon/lib/32/libm.a(lib_a-s_copysign.o)
                              /usr/local/xenon/xenon/lib/32/libm.a(lib_a-s_scalbn.o) (copysign)
/usr/local/xenon/lib/gcc/xenon/4.6.0/32/libgcc.a(crtsavgpr.o)
                              /usr/local/xenon/usr/lib/libxenon.a(edram.o) (_savegpr_14)
/usr/local/xenon/lib/gcc/xenon/4.6.0/32/libgcc.a(crtresxgpr.o)
                              /usr/local/xenon/usr/lib/libxenon.a(edram.o) (_restgpr_14_x)
/usr/local/xenon/lib/gcc/xenon/4.6.0/32/libgcc.a(unwind-dw2.o)
                              /usr/local/xenon/lib/gcc/xenon/4.6.0/../../../../xenon/lib/../lib/libstdc++.a(eh_personality.o) (_Unwind_SetGR)
/usr/local/xenon/lib/gcc/xenon/4.6.0/32/libgcc.a(unwind-dw2-fde-glibc.o)
                              /usr/local/xenon/lib/gcc/xenon/4.6.0/32/libgcc.a(unwind-dw2.o) (_Unwind_Find_FDE)
/usr/local/xenon/xenon/lib/32/libc.a(lib_a-abort.o)
                              /usr/local/xenon/usr/lib/libxenon.a(edram.o) (abort)
/usr/local/xenon/xenon/lib/32/libc.a(lib_a-assert.o)
                              /usr/local/xenon/usr/lib/libxenon.a(ata.o) (__assert_func)
/usr/local/xenon/xenon/lib/32/libc.a(lib_a-atof.o)
                              /usr/local/xenon/usr/lib/libpng.a(libpng15_la-pngget.o) (atof)
/usr/local/xenon/xenon/lib/32/libc.a(lib_a-atoi.o)
                              /usr/local/xenon/usr/lib/libxenon.a(fat_rb.o) (atoi)
/usr/local/xenon/xenon/lib/32/libc.a(lib_a-ctype_.o)
                              /usr/local/xenon/usr/lib/libxenon.a(fat_rb.o) (__ctype_ptr__)
/usr/local/xenon/xenon/lib/32/libc.a(lib_a-cxa_atexit.o)
                              main.o (__cxa_atexit)
/usr/local/xenon/xenon/lib/32/libc.a(lib_a-errno.o)
                              /usr/local/xenon/usr/lib/libxenon.a(newlib.o) (__errno)
/usr/local/xenon/xenon/lib/32/libc.a(lib_a-exit.o)
                              /usr/local/xenon/usr/lib/libxenon.a(fat_rb.o) (exit)
/usr/local/xenon/xenon/lib/32/libc.a(lib_a-fclose.o)
                              Utils.o (fclose)
/usr/local/xenon/xenon/lib/32/libc.a(lib_a-fflush.o)
                              /usr/local/xenon/xenon/lib/32/libc.a(lib_a-fclose.o) (_fflush_r)
/usr/local/xenon/xenon/lib/32/libc.a(lib_a-findfp.o)
                              /usr/local/xenon/xenon/lib/32/libc.a(lib_a-fclose.o) (__sfp_lock_acquire)
/usr/local/xenon/xenon/lib/32/libc.a(lib_a-fiprintf.o)
                              /usr/local/xenon/xenon/lib/32/libc.a(lib_a-assert.o) (fiprintf)
/usr/local/xenon/xenon/lib/32/libc.a(lib_a-fopen.o)
                              Utils.o (fopen)
/usr/local/xenon/xenon/lib/32/libc.a(lib_a-fprintf.o)
                              /usr/local/xenon/usr/lib/libpng.a(libpng15_la-pngerror.o) (fprintf)
/usr/local/xenon/xenon/lib/32/libc.a(lib_a-fputc.o)
                              /usr/local/xenon/usr/lib/libpng.a(libpng15_la-pngerror.o) (fputc)
/usr/local/xenon/xenon/lib/32/libc.a(lib_a-fputs.o)
                              /usr/local/xenon/lib/gcc/xenon/4.6.0/../../../../xenon/lib/../lib/libstdc++.a(vterminate.o) (fputs)
/usr/local/xenon/xenon/lib/32/libc.a(lib_a-fread.o)
                              Utils.o (fread)
/usr/local/xenon/xenon/lib/32/libc.a(lib_a-freer.o)
                              /usr/local/xenon/xenon/lib/32/libc.a(lib_a-fclose.o) (_free_r)
/usr/local/xenon/xenon/lib/32/libc.a(lib_a-fseek.o)
                              /usr/local/xenon/xenon/lib/32/libc.a(lib_a-fopen.o) (_fseek_r)
/usr/local/xenon/xenon/lib/32/libc.a(lib_a-fstatr.o)
                              /usr/local/xenon/xenon/lib/32/libc.a(lib_a-fseek.o) (_fstat_r)
/usr/local/xenon/xenon/lib/32/libc.a(lib_a-ftell.o)
                              Utils.o (ftell)
/usr/local/xenon/xenon/lib/32/libc.a(lib_a-fvwrite.o)
                              /usr/local/xenon/xenon/lib/32/libc.a(lib_a-fputs.o) (__sfvwrite_r)
/usr/local/xenon/xenon/lib/32/libc.a(lib_a-fwalk.o)
                              /usr/local/xenon/xenon/lib/32/libc.a(lib_a-findfp.o) (_fwalk)
/usr/local/xenon/xenon/lib/32/libc.a(lib_a-fwrite.o)
                              /usr/local/xenon/lib/gcc/xenon/4.6.0/../../../../xenon/lib/../lib/libstdc++.a(vterminate.o) (fwrite)
/usr/local/xenon/xenon/lib/32/libc.a(lib_a-impure.o)
                              /usr/local/xenon/xenon/lib/32/libc.a(lib_a-exit.o) (_global_impure_ptr)
/usr/local/xenon/xenon/lib/32/libc.a(lib_a-makebuf.o)
                              /usr/local/xenon/xenon/lib/32/libc.a(lib_a-fseek.o) (__smakebuf_r)
/usr/local/xenon/xenon/lib/32/libc.a(lib_a-malign.o)
                              /usr/local/xenon/usr/lib/libxenon.a(ata.o) (memalign)
/usr/local/xenon/xenon/lib/32/libc.a(lib_a-malignr.o)
                              /usr/local/xenon/xenon/lib/32/libc.a(lib_a-malign.o) (_memalign_r)
/usr/local/xenon/xenon/lib/32/libc.a(lib_a-malloc.o)
                              main.o (malloc)
/usr/local/xenon/xenon/lib/32/libc.a(lib_a-mallocr.o)
                              /usr/local/xenon/xenon/lib/32/libc.a(lib_a-freer.o) (__malloc_av_)
/usr/local/xenon/xenon/lib/32/libc.a(lib_a-memchr.o)
                              /usr/local/xenon/usr/lib/libxenon.a(disk_rb.o) (memchr)
/usr/local/xenon/xenon/lib/32/libc.a(lib_a-memcmp.o)
                              /usr/local/xenon/usr/lib/libxenon.a(iso9660.o) (memcmp)
/usr/local/xenon/xenon/lib/32/libc.a(lib_a-memcpy.o)
                              main.o (memcpy)
/usr/local/xenon/xenon/lib/32/libc.a(lib_a-memmove.o)
                              /usr/local/xenon/xenon/lib/32/libc.a(lib_a-fvwrite.o) (memmove)
/usr/local/xenon/xenon/lib/32/libc.a(lib_a-memset.o)
                              main.o (memset)
/usr/local/xenon/xenon/lib/32/libc.a(lib_a-mlock.o)
                              /usr/local/xenon/xenon/lib/32/libc.a(lib_a-freer.o) (__malloc_lock)
/usr/local/xenon/xenon/lib/32/libc.a(lib_a-openr.o)
                              /usr/local/xenon/xenon/lib/32/libc.a(lib_a-fopen.o) (_open_r)
/usr/local/xenon/xenon/lib/32/libc.a(lib_a-printf.o)
                              Console.o (printf)
/usr/local/xenon/xenon/lib/32/libc.a(lib_a-putchar.o)
                              /usr/local/xenon/usr/lib/libxenon.a(xenos.o) (putchar)
/usr/local/xenon/xenon/lib/32/libc.a(lib_a-putc.o)
                              /usr/local/xenon/xenon/lib/32/libc.a(lib_a-fputc.o) (_putc_r)
/usr/local/xenon/xenon/lib/32/libc.a(lib_a-puts.o)
                              Tools.o (puts)
/usr/local/xenon/xenon/lib/32/libc.a(lib_a-rand.o)
                              main.o (srand)
/usr/local/xenon/xenon/lib/32/libc.a(lib_a-realloc.o)
                              /usr/local/xenon/lib/gcc/xenon/4.6.0/../../../../xenon/lib/../lib/libstdc++.a(cp-demangle.o) (realloc)
/usr/local/xenon/xenon/lib/32/libc.a(lib_a-reallocr.o)
                              /usr/local/xenon/xenon/lib/32/libc.a(lib_a-fvwrite.o) (_realloc_r)
/usr/local/xenon/xenon/lib/32/libc.a(lib_a-reent.o)
                              /usr/local/xenon/xenon/lib/32/libc.a(lib_a-fstatr.o) (errno)
/usr/local/xenon/xenon/lib/32/libc.a(lib_a-refill.o)
                              /usr/local/xenon/xenon/lib/32/libc.a(lib_a-fread.o) (__srefill_r)
/usr/local/xenon/xenon/lib/32/libc.a(lib_a-sbrkr.o)
                              /usr/local/xenon/xenon/lib/32/libc.a(lib_a-freer.o) (_sbrk_r)
/usr/local/xenon/xenon/lib/32/libc.a(lib_a-setjmp.o)
                              /usr/local/xenon/usr/lib/libpng.a(libpng15_la-pngread.o) (setjmp)
/usr/local/xenon/xenon/lib/32/libc.a(lib_a-signal.o)
                              /usr/local/xenon/xenon/lib/32/libc.a(lib_a-abort.o) (raise)
/usr/local/xenon/xenon/lib/32/libc.a(lib_a-signalr.o)
                              /usr/local/xenon/xenon/lib/32/libc.a(lib_a-signal.o) (_kill_r)
/usr/local/xenon/xenon/lib/32/libc.a(lib_a-snprintf.o)
                              /usr/local/xenon/usr/lib/libxenon.a(diskio.o) (snprintf)
/usr/local/xenon/xenon/lib/32/libc.a(lib_a-sprintf.o)
                              main.o (sprintf)
/usr/local/xenon/xenon/lib/32/libc.a(lib_a-stdio.o)
                              /usr/local/xenon/xenon/lib/32/libc.a(lib_a-findfp.o) (__sread)
/usr/local/xenon/xenon/lib/32/libc.a(lib_a-strcasecmp.o)
                              /usr/local/xenon/usr/lib/libxenon.a(file_rb.o) (strcasecmp)
/usr/local/xenon/xenon/lib/32/libc.a(lib_a-strcat.o)
                              /usr/local/xenon/usr/lib/libxenon.a(fat_rb.o) (strcat)
/usr/local/xenon/xenon/lib/32/libc.a(lib_a-strchr.o)
                              /usr/local/xenon/usr/lib/libxenon.a(fat_rb.o) (strchr)
/usr/local/xenon/xenon/lib/32/libc.a(lib_a-strcmp.o)
                              /usr/local/xenon/usr/lib/libxenon.a(newlib.o) (strcmp)
/usr/local/xenon/xenon/lib/32/libc.a(lib_a-strcpy.o)
                              Console.o (strcpy)
/usr/local/xenon/xenon/lib/32/libc.a(lib_a-strlcpy.o)
                              /usr/local/xenon/usr/lib/libxenon.a(fat.o) (strlcpy)
/usr/local/xenon/xenon/lib/32/libc.a(lib_a-strlen.o)
                              Console.o (strlen)
/usr/local/xenon/xenon/lib/32/libc.a(lib_a-strncasecmp.o)
                              /usr/local/xenon/usr/lib/libxenon.a(iso9660.o) (strncasecmp)
/usr/local/xenon/xenon/lib/32/libc.a(lib_a-strncmp.o)
                              /usr/local/xenon/usr/lib/libxenon.a(newlib.o) (strncmp)
/usr/local/xenon/xenon/lib/32/libc.a(lib_a-strncpy.o)
                              /usr/local/xenon/usr/lib/libxenon.a(ata.o) (strncpy)
/usr/local/xenon/xenon/lib/32/libc.a(lib_a-strrchr.o)
                              /usr/local/xenon/usr/lib/libxenon.a(fat_rb.o) (strrchr)
/usr/local/xenon/xenon/lib/32/libc.a(lib_a-strtod.o)
                              /usr/local/xenon/xenon/lib/32/libc.a(lib_a-atof.o) (strtod)
/usr/local/xenon/xenon/lib/32/libc.a(lib_a-strtok_r.o)
                              /usr/local/xenon/usr/lib/libxenon.a(dir_rb.o) (strtok_r)
/usr/local/xenon/xenon/lib/32/libc.a(lib_a-strtol.o)
                              /usr/local/xenon/xenon/lib/32/libc.a(lib_a-atoi.o) (_strtol_r)
/usr/local/xenon/xenon/lib/32/libc.a(lib_a-svfprintf.o)
                              /usr/local/xenon/xenon/lib/32/libc.a(lib_a-snprintf.o) (_svfprintf_r)
/usr/local/xenon/xenon/lib/32/libc.a(lib_a-vfiprintf.o)
                              /usr/local/xenon/xenon/lib/32/libc.a(lib_a-fiprintf.o) (_vfiprintf_r)
/usr/local/xenon/xenon/lib/32/libc.a(lib_a-vfprintf.o)
                              /usr/local/xenon/xenon/lib/32/libc.a(lib_a-fprintf.o) (_vfprintf_r)
/usr/local/xenon/xenon/lib/32/libc.a(lib_a-vprintf.o)
                              /usr/local/xenon/usr/lib/libxenon.a(xe.o) (vprintf)
/usr/local/xenon/xenon/lib/32/libc.a(lib_a-vsprintf.o)
                              Console.o (vsprintf)
/usr/local/xenon/xenon/lib/32/libc.a(lib_a-wbuf.o)
                              /usr/local/xenon/xenon/lib/32/libc.a(lib_a-putc.o) (__swbuf_r)
/usr/local/xenon/xenon/lib/32/libc.a(lib_a-writer.o)
                              /usr/local/xenon/xenon/lib/32/libc.a(lib_a-stdio.o) (_write_r)
/usr/local/xenon/xenon/lib/32/libc.a(lib_a-wsetup.o)
                              /usr/local/xenon/xenon/lib/32/libc.a(lib_a-fvwrite.o) (__swsetup_r)
/usr/local/xenon/xenon/lib/32/libc.a(lib_a-__atexit.o)
                              /usr/local/xenon/xenon/lib/32/libc.a(lib_a-cxa_atexit.o) (__register_exitproc)
/usr/local/xenon/xenon/lib/32/libc.a(lib_a-__call_atexit.o)
                              /usr/local/xenon/xenon/lib/32/libc.a(lib_a-exit.o) (__call_exitprocs)
/usr/local/xenon/xenon/lib/32/libc.a(lib_a-closer.o)
                              /usr/local/xenon/xenon/lib/32/libc.a(lib_a-stdio.o) (_close_r)
/usr/local/xenon/xenon/lib/32/libc.a(lib_a-dtoa.o)
                              /usr/local/xenon/xenon/lib/32/libc.a(lib_a-svfprintf.o) (_dtoa_r)
/usr/local/xenon/xenon/lib/32/libc.a(lib_a-flags.o)
                              /usr/local/xenon/xenon/lib/32/libc.a(lib_a-fopen.o) (__sflags)
/usr/local/xenon/xenon/lib/32/libc.a(lib_a-gdtoa-gethex.o)
                              /usr/local/xenon/xenon/lib/32/libc.a(lib_a-strtod.o) (__gethex)
/usr/local/xenon/xenon/lib/32/libc.a(lib_a-gdtoa-hexnan.o)
                              /usr/local/xenon/xenon/lib/32/libc.a(lib_a-strtod.o) (__hexnan)
/usr/local/xenon/xenon/lib/32/libc.a(lib_a-isattyr.o)
                              /usr/local/xenon/xenon/lib/32/libc.a(lib_a-makebuf.o) (_isatty_r)
/usr/local/xenon/xenon/lib/32/libc.a(lib_a-locale.o)
                              /usr/local/xenon/xenon/lib/32/libc.a(lib_a-svfprintf.o) (_localeconv_r)
/usr/local/xenon/xenon/lib/32/libc.a(lib_a-lseekr.o)
                              /usr/local/xenon/xenon/lib/32/libc.a(lib_a-stdio.o) (_lseek_r)
/usr/local/xenon/xenon/lib/32/libc.a(lib_a-mprec.o)
                              /usr/local/xenon/xenon/lib/32/libc.a(lib_a-strtod.o) (_Balloc)
/usr/local/xenon/xenon/lib/32/libc.a(lib_a-readr.o)
                              /usr/local/xenon/xenon/lib/32/libc.a(lib_a-stdio.o) (_read_r)
/usr/local/xenon/xenon/lib/32/libc.a(lib_a-sf_nan.o)
                              /usr/local/xenon/xenon/lib/32/libc.a(lib_a-strtod.o) (nanf)
/usr/local/xenon/xenon/lib/32/libc.a(lib_a-s_isinfd.o)
                              /usr/local/xenon/xenon/lib/32/libc.a(lib_a-svfprintf.o) (__isinfd)
/usr/local/xenon/xenon/lib/32/libc.a(lib_a-callocr.o)
                              /usr/local/xenon/xenon/lib/32/libc.a(lib_a-mprec.o) (_calloc_r)
/usr/local/xenon/lib/gcc/xenon/4.6.0/32/libgcc.a(_udivdi3.o)
                              /usr/local/xenon/xenon/lib/32/libc.a(lib_a-svfprintf.o) (__udivdi3)
/usr/local/xenon/lib/gcc/xenon/4.6.0/32/libgcc.a(_umoddi3.o)
                              /usr/local/xenon/xenon/lib/32/libc.a(lib_a-svfprintf.o) (__umoddi3)

Allocating common symbols
Common symbol       size              file

atapi               0x24              /usr/local/xenon/usr/lib/libxenon.a(ata.o)
errno               0x4               /usr/local/xenon/xenon/lib/32/libc.a(lib_a-reent.o)
cache_mutex         0x4               /usr/local/xenon/usr/lib/libxenon.a(fat_rb.o)
heap_ptr            0x4               /usr/local/xenon/usr/lib/libxenon.a(newlib.o)
__hexdig            0x100             /usr/local/xenon/xenon/lib/32/libc.a(lib_a-gdtoa-gethex.o)
ata                 0x24              /usr/local/xenon/usr/lib/libxenon.a(ata.o)
reloc               0x28              /usr/local/xenon/usr/lib/libxenon.a(edram.o)
kmempool            0xc               /usr/local/xenon/usr/lib/libxenon.a(lib_malloc.o)
usb_buses           0x10              /usr/local/xenon/usr/lib/libxenon.a(usbmain.o)
devices             0x380             /usr/local/xenon/usr/lib/libxenon.a(diskio.o)
ehci_hcds           0x340             /usr/local/xenon/usr/lib/libxenon.a(tinyehci.o)

Discarded input sections

 .text          0x0000000000000000        0x0 /usr/local/xenon/lib/gcc/xenon/4.6.0/../../../../xenon/lib/../lib/crt1.o
 .data          0x0000000000000000        0x0 /usr/local/xenon/lib/gcc/xenon/4.6.0/../../../../xenon/lib/../lib/crt1.o
 .bss           0x0000000000000000        0x0 /usr/local/xenon/lib/gcc/xenon/4.6.0/../../../../xenon/lib/../lib/crt1.o
 .text          0x0000000000000000        0x0 /usr/local/xenon/lib/gcc/xenon/4.6.0/../../../../xenon/lib/../lib/crti.o
 .data          0x0000000000000000        0x0 /usr/local/xenon/lib/gcc/xenon/4.6.0/../../../../xenon/lib/../lib/crti.o
 .bss           0x0000000000000000        0x0 /usr/local/xenon/lib/gcc/xenon/4.6.0/../../../../xenon/lib/../lib/crti.o
 .init          0x0000000000000000        0xc /usr/local/xenon/lib/gcc/xenon/4.6.0/../../../../xenon/lib/../lib/crti.o
 .fini          0x0000000000000000        0xc /usr/local/xenon/lib/gcc/xenon/4.6.0/../../../../xenon/lib/../lib/crti.o
 .text          0x0000000000000000      0x184 /usr/local/xenon/lib/gcc/xenon/4.6.0/32/crtbegin.o
 .data          0x0000000000000000        0x4 /usr/local/xenon/lib/gcc/xenon/4.6.0/32/crtbegin.o
 .bss           0x0000000000000000       0x20 /usr/local/xenon/lib/gcc/xenon/4.6.0/32/crtbegin.o
 .got2          0x0000000000000000       0x28 /usr/local/xenon/lib/gcc/xenon/4.6.0/32/crtbegin.o
 .ctors         0x0000000000000000        0x4 /usr/local/xenon/lib/gcc/xenon/4.6.0/32/crtbegin.o
 .dtors         0x0000000000000000        0x4 /usr/local/xenon/lib/gcc/xenon/4.6.0/32/crtbegin.o
 .jcr           0x0000000000000000        0x0 /usr/local/xenon/lib/gcc/xenon/4.6.0/32/crtbegin.o
 .fini          0x0000000000000000        0x4 /usr/local/xenon/lib/gcc/xenon/4.6.0/32/crtbegin.o
 .init          0x0000000000000000        0x4 /usr/local/xenon/lib/gcc/xenon/4.6.0/32/crtbegin.o
 .text          0x0000000000000000        0x0 draw_c_p.psu.o
 .data          0x0000000000000000        0x0 draw_c_p.psu.o
 .bss           0x0000000000000000        0x0 draw_c_p.psu.o
 .text          0x0000000000000000        0x0 draw_t_p.psu.o
 .data          0x0000000000000000        0x0 draw_t_p.psu.o
 .bss           0x0000000000000000        0x0 draw_t_p.psu.o
 .text          0x0000000000000000        0x0 draw_v.vsu.o
 .data          0x0000000000000000        0x0 draw_v.vsu.o
 .bss           0x0000000000000000        0x0 draw_v.vsu.o
 .text          0x0000000000000000        0x0 font_p.psu.o
 .data          0x0000000000000000        0x0 font_p.psu.o
 .bss           0x0000000000000000        0x0 font_p.psu.o
 .text          0x0000000000000000        0x0 font_v.vsu.o
 .data          0x0000000000000000        0x0 font_v.vsu.o
 .bss           0x0000000000000000        0x0 font_v.vsu.o
 .text          0x0000000000000000        0x0 Verdana_16.abc.o
 .data          0x0000000000000000        0x0 Verdana_16.abc.o
 .bss           0x0000000000000000        0x0 Verdana_16.abc.o
 .text          0x0000000000000000        0x0 Verdana_16.png.o
 .data          0x0000000000000000        0x0 Verdana_16.png.o
 .bss           0x0000000000000000        0x0 Verdana_16.png.o
 .group         0x0000000000000000        0x8 main.o
 .text          0x0000000000000000        0x0 main.o
 .data          0x0000000000000000        0x0 main.o
 .bss           0x0000000000000000        0x0 main.o
 .text._ZN9MyConsoleD2Ev
                0x0000000000000000       0x20 main.o
 .text.startup._GLOBAL__sub_I__ZN9MyConsole9RenderAppEv
                0x0000000000000000       0x4c main.o
 .ctors         0x0000000000000000        0x4 main.o
 .text          0x0000000000000000        0x0 Tank.o
 .data          0x0000000000000000        0x0 Tank.o
 .bss           0x0000000000000000        0x0 Tank.o
 .text._ZN7cBullet4initEP12XenosSurface
                0x0000000000000000       0x34 Tank.o
 .text          0x0000000000000000        0x0 Tools.o
 .data          0x0000000000000000        0x0 Tools.o
 .bss           0x0000000000000000        0x0 Tools.o
 .text._ZN6xTools14ActionShutdownEPv
                0x0000000000000000       0x2c Tools.o
 .text._ZN6xTools13ActionRestartEPv
                0x0000000000000000       0x20 Tools.o
 .rodata.str1.8
                0x0000000000000000        0xe Tools.o
 .text          0x0000000000000000        0x0 Console.o
 .data          0x0000000000000000        0x0 Console.o
 .bss           0x0000000000000000        0x0 Console.o
 .text._ZN3ZLX7ConsoleC2Ev
                0x0000000000000000       0x48 Console.o
 .text._ZN3ZLX7ConsoleD2Ev
                0x0000000000000000       0x24 Console.o
 .text._ZN3ZLX7Console8ScrollUpEi
                0x0000000000000000       0x7c Console.o
 .text._ZN3ZLX7Console7newLineEv
                0x0000000000000000       0x74 Console.o
 .text._ZN3ZLX7Console5ClearEv
                0x0000000000000000       0x70 Console.o
 .text._ZN3ZLX7Console3AddEc
                0x0000000000000000       0x3c Console.o
 .text._ZN3ZLX7Console6FormatEPKcz
                0x0000000000000000       0xfc Console.o
 .text          0x0000000000000000        0x0 Draw.o
 .data          0x0000000000000000        0x0 Draw.o
 .bss           0x0000000000000000        0x0 Draw.o
 .text._ZN3ZLX4Draw16DrawGradientRectEffffjj
                0x0000000000000000      0x1a0 Draw.o
 .text._ZN3ZLX4Draw16DrawTexturedRectEffffP12XenosSurface
                0x0000000000000000      0x184 Draw.o
 .text          0x0000000000000000        0x0 Font.o
 .data          0x0000000000000000        0x0 Font.o
 .bss           0x0000000000000000        0x0 Font.o
 .text._ZN3ZLX4FontC2Ev
                0x0000000000000000       0x14 Font.o
 .text._ZN3ZLX4FontD2Ev
                0x0000000000000000        0x4 Font.o
 .text._ZN3ZLX4Font12GetTextWidthEPKc
                0x0000000000000000       0x30 Font.o
 .text          0x0000000000000000        0x0 stdafx.o
 .data          0x0000000000000000        0x0 stdafx.o
 .bss           0x0000000000000000        0x0 stdafx.o
 .text          0x0000000000000000        0x0 Utils.o
 .data          0x0000000000000000        0x0 Utils.o
 .bss           0x0000000000000000        0x0 Utils.o
 .text._ZN3ZLX10UnloadFileEPv
                0x0000000000000000       0x20 Utils.o
 .sbss._ZN3ZLX2fdE
                0x0000000000000000        0x4 Utils.o
 .text          0x0000000000000000        0x0 zlx.o
 .data          0x0000000000000000        0x0 zlx.o
 .bss           0x0000000000000000        0x0 zlx.o
 .data          0x0000000000000000        0x0 /usr/local/xenon/usr/lib/libxenon.a(startup_from_xell.o)
 .bss           0x0000000000000000        0x0 /usr/local/xenon/usr/lib/libxenon.a(startup_from_xell.o)
 .text          0x0000000000000000        0x0 /usr/local/xenon/usr/lib/libxenon.a(ata.o)
 .data          0x0000000000000000        0x0 /usr/local/xenon/usr/lib/libxenon.a(ata.o)
 .bss           0x0000000000000000        0x0 /usr/local/xenon/usr/lib/libxenon.a(ata.o)
 .text          0x0000000000000000        0x0 /usr/local/xenon/usr/lib/libxenon.a(input.o)
 .data          0x0000000000000000        0x0 /usr/local/xenon/usr/lib/libxenon.a(input.o)
 .bss           0x0000000000000000        0x0 /usr/local/xenon/usr/lib/libxenon.a(input.o)
 .text          0x0000000000000000        0x0 /usr/local/xenon/usr/lib/libxenon.a(newlib.o)
 .data          0x0000000000000000        0x0 /usr/local/xenon/usr/lib/libxenon.a(newlib.o)
 .bss           0x0000000000000000        0x0 /usr/local/xenon/usr/lib/libxenon.a(newlib.o)
 .text.is_valid_and_open_DIR
                0x0000000000000000       0x48 /usr/local/xenon/usr/lib/libxenon.a(newlib.o)
 .text.vfs_default_lseek
                0x0000000000000000       0x60 /usr/local/xenon/usr/lib/libxenon.a(newlib.o)
 .text.umount   0x0000000000000000       0x4c /usr/local/xenon/usr/lib/libxenon.a(newlib.o)
 .text.opendir  0x0000000000000000      0x108 /usr/local/xenon/usr/lib/libxenon.a(newlib.o)
 .text.readdir  0x0000000000000000       0x60 /usr/local/xenon/usr/lib/libxenon.a(newlib.o)
 .text.closedir
                0x0000000000000000       0x68 /usr/local/xenon/usr/lib/libxenon.a(newlib.o)
 .text.unlink   0x0000000000000000        0x8 /usr/local/xenon/usr/lib/libxenon.a(newlib.o)
 .bss.dd_array  0x0000000000000000      0xb00 /usr/local/xenon/usr/lib/libxenon.a(newlib.o)
 .data          0x0000000000000000        0x0 /usr/local/xenon/usr/lib/libxenon.a(atomic.o)
 .bss           0x0000000000000000        0x0 /usr/local/xenon/usr/lib/libxenon.a(atomic.o)
 .data          0x0000000000000000        0x0 /usr/local/xenon/usr/lib/libxenon.a(cache.o)
 .bss           0x0000000000000000        0x0 /usr/local/xenon/usr/lib/libxenon.a(cache.o)
 .text          0x0000000000000000        0x0 /usr/local/xenon/usr/lib/libxenon.a(except.o)
 .data          0x0000000000000000        0x0 /usr/local/xenon/usr/lib/libxenon.a(except.o)
 .bss           0x0000000000000000        0x0 /usr/local/xenon/usr/lib/libxenon.a(except.o)
 .text          0x0000000000000000        0x0 /usr/local/xenon/usr/lib/libxenon.a(vm.o)
 .data          0x0000000000000000        0x0 /usr/local/xenon/usr/lib/libxenon.a(vm.o)
 .bss           0x0000000000000000        0x0 /usr/local/xenon/usr/lib/libxenon.a(vm.o)
 .text          0x0000000000000000        0x0 /usr/local/xenon/usr/lib/libxenon.a(time.o)
 .data          0x0000000000000000        0x0 /usr/local/xenon/usr/lib/libxenon.a(time.o)
 .bss           0x0000000000000000        0x0 /usr/local/xenon/usr/lib/libxenon.a(time.o)
 .text          0x0000000000000000        0x0 /usr/local/xenon/usr/lib/libxenon.a(usbmain.o)
 .data          0x0000000000000000        0x0 /usr/local/xenon/usr/lib/libxenon.a(usbmain.o)
 .bss           0x0000000000000000        0x0 /usr/local/xenon/usr/lib/libxenon.a(usbmain.o)
 .text.usb_shutdown
                0x0000000000000000       0xb4 /usr/local/xenon/usr/lib/libxenon.a(usbmain.o)
 .text          0x0000000000000000        0x0 /usr/local/xenon/usr/lib/libxenon.a(tinyehci.o)
 .data          0x0000000000000000        0x0 /usr/local/xenon/usr/lib/libxenon.a(tinyehci.o)
 .bss           0x0000000000000000        0x0 /usr/local/xenon/usr/lib/libxenon.a(tinyehci.o)
 .text.debug_qtds
                0x0000000000000000       0x4c /usr/local/xenon/usr/lib/libxenon.a(tinyehci.o)
 .text.dump_qh  0x0000000000000000       0x4c /usr/local/xenon/usr/lib/libxenon.a(tinyehci.o)
 .text.ehci_release_ports
                0x0000000000000000       0xb0 /usr/local/xenon/usr/lib/libxenon.a(tinyehci.o)
 .text.ehci_open_device
                0x0000000000000000       0x80 /usr/local/xenon/usr/lib/libxenon.a(tinyehci.o)
 .text.ehci_close_device
                0x0000000000000000       0x18 /usr/local/xenon/usr/lib/libxenon.a(tinyehci.o)
 .text.ehci_fd_to_dev
                0x0000000000000000       0x40 /usr/local/xenon/usr/lib/libxenon.a(tinyehci.o)
 .text.ehci_get_device_list
                0x0000000000000000       0x88 /usr/local/xenon/usr/lib/libxenon.a(tinyehci.o)
 .text.USB_WriteBlkMsg
                0x0000000000000000        0x4 /usr/local/xenon/usr/lib/libxenon.a(tinyehci.o)
 .text.USB_WriteCtrlMsg
                0x0000000000000000        0x4 /usr/local/xenon/usr/lib/libxenon.a(tinyehci.o)
 .text.ehci_reset_device
                0x0000000000000000        0x8 /usr/local/xenon/usr/lib/libxenon.a(tinyehci.o)
 .text.USBStorage_GetMaxLUN
                0x0000000000000000        0x8 /usr/local/xenon/usr/lib/libxenon.a(tinyehci.o)
 .text.USBStorage_Reset
                0x0000000000000000        0x4 /usr/local/xenon/usr/lib/libxenon.a(tinyehci.o)
 .text.USBStorage_Read_Stress
                0x0000000000000000       0xbc /usr/local/xenon/usr/lib/libxenon.a(tinyehci.o)
 .text.USBStorage_Umount
                0x0000000000000000       0x98 /usr/local/xenon/usr/lib/libxenon.a(tinyehci.o)
 .text.USBStorage_Get_Capacity
                0x0000000000000000       0x60 /usr/local/xenon/usr/lib/libxenon.a(tinyehci.o)
 .text          0x0000000000000000        0x0 /usr/local/xenon/usr/lib/libxenon.a(xenon_smc.o)
 .data          0x0000000000000000        0x0 /usr/local/xenon/usr/lib/libxenon.a(xenon_smc.o)
 .bss           0x0000000000000000        0x0 /usr/local/xenon/usr/lib/libxenon.a(xenon_smc.o)
 .text.xenon_smc_i2c_read
                0x0000000000000000       0xb4 /usr/local/xenon/usr/lib/libxenon.a(xenon_smc.o)
 .text.xenon_smc_set_led
                0x0000000000000000       0x40 /usr/local/xenon/usr/lib/libxenon.a(xenon_smc.o)
 .text.xenon_smc_set_power_led
                0x0000000000000000       0x5c /usr/local/xenon/usr/lib/libxenon.a(xenon_smc.o)
 .text.xenon_smc_power_shutdown
                0x0000000000000000       0x40 /usr/local/xenon/usr/lib/libxenon.a(xenon_smc.o)
 .text.xenon_smc_power_reboot
                0x0000000000000000       0x48 /usr/local/xenon/usr/lib/libxenon.a(xenon_smc.o)
 .text.xenon_smc_query_sensors
                0x0000000000000000       0x78 /usr/local/xenon/usr/lib/libxenon.a(xenon_smc.o)
 .text          0x0000000000000000        0x0 /usr/local/xenon/usr/lib/libxenon.a(xenon_uart.o)
 .data          0x0000000000000000        0x0 /usr/local/xenon/usr/lib/libxenon.a(xenon_uart.o)
 .bss           0x0000000000000000        0x0 /usr/local/xenon/usr/lib/libxenon.a(xenon_uart.o)
 .text.kbhit    0x0000000000000000       0x24 /usr/local/xenon/usr/lib/libxenon.a(xenon_uart.o)
 .text.getch    0x0000000000000000       0x38 /usr/local/xenon/usr/lib/libxenon.a(xenon_uart.o)
 .text          0x0000000000000000        0x0 /usr/local/xenon/usr/lib/libxenon.a(edram.o)
 .data          0x0000000000000000        0x0 /usr/local/xenon/usr/lib/libxenon.a(edram.o)
 .bss           0x0000000000000000        0x0 /usr/local/xenon/usr/lib/libxenon.a(edram.o)
 .text.edram_bec
                0x0000000000000000      0xee0 /usr/local/xenon/usr/lib/libxenon.a(edram.o)
 .text          0x0000000000000000        0x0 /usr/local/xenon/usr/lib/libxenon.a(xe.o)
 .data          0x0000000000000000        0x0 /usr/local/xenon/usr/lib/libxenon.a(xe.o)
 .bss           0x0000000000000000        0x0 /usr/local/xenon/usr/lib/libxenon.a(xe.o)
 .text.Xe_pFree
                0x0000000000000000       0x24 /usr/local/xenon/usr/lib/libxenon.a(xe.o)
 .text.Xe_pSetBin
                0x0000000000000000       0x90 /usr/local/xenon/usr/lib/libxenon.a(xe.o)
 .text.Xe_pWaitUntilIdle
                0x0000000000000000       0x2c /usr/local/xenon/usr/lib/libxenon.a(xe.o)
 .text.Xe_pDrawIndexedPrimitive
                0x0000000000000000       0xb8 /usr/local/xenon/usr/lib/libxenon.a(xe.o)
 .text.Xe_pWaitReady2
                0x0000000000000000       0x18 /usr/local/xenon/usr/lib/libxenon.a(xe.o)
 .text.Xe_pInit1
                0x0000000000000000       0x74 /usr/local/xenon/usr/lib/libxenon.a(xe.o)
 .text.Xe_GetShaderLength
                0x0000000000000000       0x20 /usr/local/xenon/usr/lib/libxenon.a(xe.o)
 .text.VERTEX_FETCH
                0x0000000000000000       0x1c /usr/local/xenon/usr/lib/libxenon.a(xe.o)
 .text.Xe_pStep
                0x0000000000000000        0xc /usr/local/xenon/usr/lib/libxenon.a(xe.o)
 .text.Xe_LoadShader
                0x0000000000000000       0xc0 /usr/local/xenon/usr/lib/libxenon.a(xe.o)
 .text.Xe_pReset
                0x0000000000000000       0xc0 /usr/local/xenon/usr/lib/libxenon.a(xe.o)
 .text.Xe_pRBMayKick
                0x0000000000000000       0x20 /usr/local/xenon/usr/lib/libxenon.a(xe.o)
 .text.Xe_SetZFunc
                0x0000000000000000       0x28 /usr/local/xenon/usr/lib/libxenon.a(xe.o)
 .text.Xe_SetZWrite
                0x0000000000000000       0x28 /usr/local/xenon/usr/lib/libxenon.a(xe.o)
 .text.Xe_SetZEnable
                0x0000000000000000       0x28 /usr/local/xenon/usr/lib/libxenon.a(xe.o)
 .text.Xe_SetFillMode
                0x0000000000000000       0x34 /usr/local/xenon/usr/lib/libxenon.a(xe.o)
 .text.Xe_SetBlendControl
                0x0000000000000000       0x3c /usr/local/xenon/usr/lib/libxenon.a(xe.o)
 .text.Xe_SetSrcBlendAlpha
                0x0000000000000000       0x68 /usr/local/xenon/usr/lib/libxenon.a(xe.o)
 .text.Xe_SetDestBlendAlpha
                0x0000000000000000       0x68 /usr/local/xenon/usr/lib/libxenon.a(xe.o)
 .text.Xe_SetBlendOpAlpha
                0x0000000000000000       0x68 /usr/local/xenon/usr/lib/libxenon.a(xe.o)
 .text.Xe_SetAlphaTestEnable
                0x0000000000000000       0x34 /usr/local/xenon/usr/lib/libxenon.a(xe.o)
 .text.Xe_SetAlphaFunc
                0x0000000000000000       0x60 /usr/local/xenon/usr/lib/libxenon.a(xe.o)
 .text.Xe_SetAlphaRef
                0x0000000000000000       0x28 /usr/local/xenon/usr/lib/libxenon.a(xe.o)
 .text.Xe_SetStencilFunc
                0x0000000000000000       0x98 /usr/local/xenon/usr/lib/libxenon.a(xe.o)
 .text.Xe_SetStencilEnable
                0x0000000000000000       0x60 /usr/local/xenon/usr/lib/libxenon.a(xe.o)
 .text.Xe_SetStencilOp
                0x0000000000000000      0x174 /usr/local/xenon/usr/lib/libxenon.a(xe.o)
 .text.Xe_SetStencilRef
                0x0000000000000000       0x48 /usr/local/xenon/usr/lib/libxenon.a(xe.o)
 .text.Xe_SetStencilMask
                0x0000000000000000       0x58 /usr/local/xenon/usr/lib/libxenon.a(xe.o)
 .text.Xe_SetStencilWriteMask
                0x0000000000000000       0x58 /usr/local/xenon/usr/lib/libxenon.a(xe.o)
 .text.Xe_SetScissor
                0x0000000000000000       0x24 /usr/local/xenon/usr/lib/libxenon.a(xe.o)
 .text.Xe_DestroyVertexBuffer
                0x0000000000000000       0x34 /usr/local/xenon/usr/lib/libxenon.a(xe.o)
 .text.Xe_Clear
                0x0000000000000000       0x50 /usr/local/xenon/usr/lib/libxenon.a(xe.o)
 .text.Xe_DrawIndexedPrimitive
                0x0000000000000000      0x128 /usr/local/xenon/usr/lib/libxenon.a(xe.o)
 .text.Xe_Draw  0x0000000000000000      0x138 /usr/local/xenon/usr/lib/libxenon.a(xe.o)
 .text.Xe_SetIndices
                0x0000000000000000        0x8 /usr/local/xenon/usr/lib/libxenon.a(xe.o)
 .text.Xe_CreateIndexBuffer
                0x0000000000000000       0x6c /usr/local/xenon/usr/lib/libxenon.a(xe.o)
 .text.Xe_DestroyIndexBuffer
                0x0000000000000000       0x34 /usr/local/xenon/usr/lib/libxenon.a(xe.o)
 .text.Xe_VB_Lock
                0x0000000000000000       0x50 /usr/local/xenon/usr/lib/libxenon.a(xe.o)
 .text.Xe_VB_Unlock
                0x0000000000000000        0x8 /usr/local/xenon/usr/lib/libxenon.a(xe.o)
 .text.Xe_IB_Lock
                0x0000000000000000       0x50 /usr/local/xenon/usr/lib/libxenon.a(xe.o)
 .text.Xe_IB_Unlock
                0x0000000000000000        0x8 /usr/local/xenon/usr/lib/libxenon.a(xe.o)
 .text.Xe_SetPixelShaderConstantF
                0x0000000000000000       0x5c /usr/local/xenon/usr/lib/libxenon.a(xe.o)
 .text.Xe_SetVertexShaderConstantB
                0x0000000000000000       0x48 /usr/local/xenon/usr/lib/libxenon.a(xe.o)
 .text.Xe_SetPixelShaderConstantB
                0x0000000000000000       0x4c /usr/local/xenon/usr/lib/libxenon.a(xe.o)
 .text.Xe_DestroyTexture
                0x0000000000000000       0x34 /usr/local/xenon/usr/lib/libxenon.a(xe.o)
 .text.Xe_IsVBlank
                0x0000000000000000       0x10 /usr/local/xenon/usr/lib/libxenon.a(xe.o)
 .rodata.__FUNCTION__.4432
                0x0000000000000000       0x13 /usr/local/xenon/usr/lib/libxenon.a(xe.o)
 .rodata.__FUNCTION__.4603
                0x0000000000000000       0x18 /usr/local/xenon/usr/lib/libxenon.a(xe.o)
 .rodata.__FUNCTION__.4446
                0x0000000000000000       0x10 /usr/local/xenon/usr/lib/libxenon.a(xe.o)
 .rodata.__FUNCTION__.4456
                0x0000000000000000       0x12 /usr/local/xenon/usr/lib/libxenon.a(xe.o)
 .rodata.__FUNCTION__.4461
                0x0000000000000000       0x14 /usr/local/xenon/usr/lib/libxenon.a(xe.o)
 .rodata.__FUNCTION__.4427
                0x0000000000000000       0x15 /usr/local/xenon/usr/lib/libxenon.a(xe.o)
 .rodata.__FUNCTION__.3930
                0x0000000000000000       0x19 /usr/local/xenon/usr/lib/libxenon.a(xe.o)
 .rodata.__FUNCTION__.4469
                0x0000000000000000       0x10 /usr/local/xenon/usr/lib/libxenon.a(xe.o)
 .rodata.__FUNCTION__.4422
                0x0000000000000000       0x14 /usr/local/xenon/usr/lib/libxenon.a(xe.o)
 .text          0x0000000000000000        0x0 /usr/local/xenon/usr/lib/libxenon.a(xenos.o)
 .data          0x0000000000000000        0x0 /usr/local/xenon/usr/lib/libxenon.a(xenos.o)
 .bss           0x0000000000000000        0x0 /usr/local/xenon/usr/lib/libxenon.a(xenos.o)
 .text.xenos_is_overscan
                0x0000000000000000       0x50 /usr/local/xenon/usr/lib/libxenon.a(xenos.o)
 .rodata.__FUNCTION__.3406
                0x0000000000000000       0x12 /usr/local/xenon/usr/lib/libxenon.a(xenos.o)
 .text          0x0000000000000000        0x0 /usr/local/xenon/usr/lib/libxenon.a(diskio.o)
 .data          0x0000000000000000        0x0 /usr/local/xenon/usr/lib/libxenon.a(diskio.o)
 .bss           0x0000000000000000        0x0 /usr/local/xenon/usr/lib/libxenon.a(diskio.o)
 .text.register_bdev_child
                0x0000000000000000       0x74 /usr/local/xenon/usr/lib/libxenon.a(diskio.o)
 .text.unregister_bdev
                0x0000000000000000       0x30 /usr/local/xenon/usr/lib/libxenon.a(diskio.o)
 .text.bdev_open
                0x0000000000000000       0x60 /usr/local/xenon/usr/lib/libxenon.a(diskio.o)
 .text.bdev_enum
                0x0000000000000000       0x6c /usr/local/xenon/usr/lib/libxenon.a(diskio.o)
 .text          0x0000000000000000        0x0 /usr/local/xenon/usr/lib/libxenon.a(fat.o)
 .data          0x0000000000000000        0x0 /usr/local/xenon/usr/lib/libxenon.a(fat.o)
 .bss           0x0000000000000000        0x0 /usr/local/xenon/usr/lib/libxenon.a(fat.o)
 .text          0x0000000000000000        0x0 /usr/local/xenon/usr/lib/libxenon.a(fat_rb.o)
 .data          0x0000000000000000        0x0 /usr/local/xenon/usr/lib/libxenon.a(fat_rb.o)
 .bss           0x0000000000000000        0x0 /usr/local/xenon/usr/lib/libxenon.a(fat_rb.o)
 .text.fat_lock
                0x0000000000000000       0x28 /usr/local/xenon/usr/lib/libxenon.a(fat_rb.o)
 .text.fat_unlock
                0x0000000000000000       0x28 /usr/local/xenon/usr/lib/libxenon.a(fat_rb.o)
 .text.fat_size
                0x0000000000000000       0x4c /usr/local/xenon/usr/lib/libxenon.a(fat_rb.o)
 .text.fat_create_dir
                0x0000000000000000      0x1ec /usr/local/xenon/usr/lib/libxenon.a(fat_rb.o)
 .text.free_direntries
                0x0000000000000000      0x1b4 /usr/local/xenon/usr/lib/libxenon.a(fat_rb.o)
 .text.fat_remove
                0x0000000000000000       0xbc /usr/local/xenon/usr/lib/libxenon.a(fat_rb.o)
 .text.fat_rename
                0x0000000000000000      0x270 /usr/local/xenon/usr/lib/libxenon.a(fat_rb.o)
 .text.fat_get_cluster_size
                0x0000000000000000       0x1c /usr/local/xenon/usr/lib/libxenon.a(fat_rb.o)
 .text.fat_ismounted
                0x0000000000000000       0x28 /usr/local/xenon/usr/lib/libxenon.a(fat_rb.o)
 .text          0x0000000000000000        0x0 /usr/local/xenon/usr/lib/libxenon.a(file_rb.o)
 .data          0x0000000000000000        0x0 /usr/local/xenon/usr/lib/libxenon.a(file_rb.o)
 .bss           0x0000000000000000        0x0 /usr/local/xenon/usr/lib/libxenon.a(file_rb.o)
 .text.rb_remove
                0x0000000000000000       0xac /usr/local/xenon/usr/lib/libxenon.a(file_rb.o)
 .text.rb_rename
                0x0000000000000000      0x23c /usr/local/xenon/usr/lib/libxenon.a(file_rb.o)
 .text.release_files
                0x0000000000000000       0x3c /usr/local/xenon/usr/lib/libxenon.a(file_rb.o)
 .text          0x0000000000000000        0x0 /usr/local/xenon/usr/lib/libxenon.a(dir_rb.o)
 .data          0x0000000000000000        0x0 /usr/local/xenon/usr/lib/libxenon.a(dir_rb.o)
 .bss           0x0000000000000000        0x0 /usr/local/xenon/usr/lib/libxenon.a(dir_rb.o)
 .text.release_dirs
                0x0000000000000000       0x3c /usr/local/xenon/usr/lib/libxenon.a(dir_rb.o)
 .text.rb_mkdir
                0x0000000000000000      0x154 /usr/local/xenon/usr/lib/libxenon.a(dir_rb.o)
 .text.rb_rmdir
                0x0000000000000000       0xec /usr/local/xenon/usr/lib/libxenon.a(dir_rb.o)
 .text          0x0000000000000000        0x0 /usr/local/xenon/usr/lib/libxenon.a(iso9660.o)
 .data          0x0000000000000000        0x0 /usr/local/xenon/usr/lib/libxenon.a(iso9660.o)
 .bss           0x0000000000000000        0x0 /usr/local/xenon/usr/lib/libxenon.a(iso9660.o)
 .text          0x0000000000000000        0x0 /usr/local/xenon/usr/lib/libxenon.a(lib_malloc.o)
 .data          0x0000000000000000        0x0 /usr/local/xenon/usr/lib/libxenon.a(lib_malloc.o)
 .bss           0x0000000000000000        0x0 /usr/local/xenon/usr/lib/libxenon.a(lib_malloc.o)
 .text.kmempoolbase
                0x0000000000000000        0x8 /usr/local/xenon/usr/lib/libxenon.a(lib_malloc.o)
 .text.kmempoolsize
                0x0000000000000000        0x8 /usr/local/xenon/usr/lib/libxenon.a(lib_malloc.o)
 .text.kmemstats
                0x0000000000000000      0x100 /usr/local/xenon/usr/lib/libxenon.a(lib_malloc.o)
 .text          0x0000000000000000        0x0 /usr/local/xenon/usr/lib/libxenon.a(io.o)
 .data          0x0000000000000000        0x0 /usr/local/xenon/usr/lib/libxenon.a(io.o)
 .bss           0x0000000000000000        0x0 /usr/local/xenon/usr/lib/libxenon.a(io.o)
 .text          0x0000000000000000        0x0 /usr/local/xenon/usr/lib/libxenon.a(ohci.o)
 .data          0x0000000000000000        0x0 /usr/local/xenon/usr/lib/libxenon.a(ohci.o)
 .bss           0x0000000000000000        0x0 /usr/local/xenon/usr/lib/libxenon.a(ohci.o)
 .sbss.ohcidebug
                0x0000000000000000        0x4 /usr/local/xenon/usr/lib/libxenon.a(ohci.o)
 .text          0x0000000000000000        0x0 /usr/local/xenon/usr/lib/libxenon.a(usbd.o)
 .data          0x0000000000000000        0x0 /usr/local/xenon/usr/lib/libxenon.a(usbd.o)
 .bss           0x0000000000000000        0x0 /usr/local/xenon/usr/lib/libxenon.a(usbd.o)
 .text.usb_destroy_pipe
                0x0000000000000000       0x6c /usr/local/xenon/usr/lib/libxenon.a(usbd.o)
 .text.usb_cancel_request
                0x0000000000000000       0x2c /usr/local/xenon/usr/lib/libxenon.a(usbd.o)
 .text.usb_make_sync_request
                0x0000000000000000       0x38 /usr/local/xenon/usr/lib/libxenon.a(usbd.o)
 .text          0x0000000000000000        0x0 /usr/local/xenon/usr/lib/libxenon.a(usbdevs.o)
 .data          0x0000000000000000        0x0 /usr/local/xenon/usr/lib/libxenon.a(usbdevs.o)
 .bss           0x0000000000000000        0x0 /usr/local/xenon/usr/lib/libxenon.a(usbdevs.o)
 .text          0x0000000000000000        0x0 /usr/local/xenon/usr/lib/libxenon.a(usbhid.o)
 .data          0x0000000000000000        0x0 /usr/local/xenon/usr/lib/libxenon.a(usbhid.o)
 .bss           0x0000000000000000        0x0 /usr/local/xenon/usr/lib/libxenon.a(usbhid.o)
 .text          0x0000000000000000        0x0 /usr/local/xenon/usr/lib/libxenon.a(usbhub.o)
 .data          0x0000000000000000        0x0 /usr/local/xenon/usr/lib/libxenon.a(usbhub.o)
 .bss           0x0000000000000000        0x0 /usr/local/xenon/usr/lib/libxenon.a(usbhub.o)
 .text.usbhub_dumpbus1
                0x0000000000000000       0x8c /usr/local/xenon/usr/lib/libxenon.a(usbhub.o)
 .text.usbhub_dumpbus
                0x0000000000000000       0x30 /usr/local/xenon/usr/lib/libxenon.a(usbhub.o)
 .text          0x0000000000000000        0x0 /usr/local/xenon/usr/lib/libxenon.a(usb_os.o)
 .data          0x0000000000000000        0x0 /usr/local/xenon/usr/lib/libxenon.a(usb_os.o)
 .bss           0x0000000000000000        0x0 /usr/local/xenon/usr/lib/libxenon.a(usb_os.o)
 .text          0x0000000000000000        0x0 /usr/local/xenon/usr/lib/libxenon.a(unicode_rb.o)
 .data          0x0000000000000000        0x0 /usr/local/xenon/usr/lib/libxenon.a(unicode_rb.o)
 .bss           0x0000000000000000        0x0 /usr/local/xenon/usr/lib/libxenon.a(unicode_rb.o)
 .text.utf16LEdecode
                0x0000000000000000       0xa0 /usr/local/xenon/usr/lib/libxenon.a(unicode_rb.o)
 .text.utf16BEdecode
                0x0000000000000000       0xa0 /usr/local/xenon/usr/lib/libxenon.a(unicode_rb.o)
 .text.utf8seek
                0x0000000000000000       0x30 /usr/local/xenon/usr/lib/libxenon.a(unicode_rb.o)
 .text          0x0000000000000000        0x0 /usr/local/xenon/usr/lib/libxenon.a(xenon_gpio.o)
 .data          0x0000000000000000        0x0 /usr/local/xenon/usr/lib/libxenon.a(xenon_gpio.o)
 .bss           0x0000000000000000        0x0 /usr/local/xenon/usr/lib/libxenon.a(xenon_gpio.o)
 .text.xenon_gpio_control
                0x0000000000000000       0x68 /usr/local/xenon/usr/lib/libxenon.a(xenon_gpio.o)
 .rodata        0x0000000000000000       0x24 /usr/local/xenon/usr/lib/libxenon.a(xenon_gpio.o)
 .text          0x0000000000000000        0x0 /usr/local/xenon/usr/lib/libxenon.a(xenon_config.o)
 .data          0x0000000000000000        0x0 /usr/local/xenon/usr/lib/libxenon.a(xenon_config.o)
 .bss           0x0000000000000000        0x0 /usr/local/xenon/usr/lib/libxenon.a(xenon_config.o)
 .text.xenon_config_get_mac_addr
                0x0000000000000000       0x9c /usr/local/xenon/usr/lib/libxenon.a(xenon_config.o)
 .text.xenon_config_get_vid_delta
                0x0000000000000000       0x24 /usr/local/xenon/usr/lib/libxenon.a(xenon_config.o)
 .rodata        0x0000000000000000        0x6 /usr/local/xenon/usr/lib/libxenon.a(xenon_config.o)
 .text          0x0000000000000000        0x0 /usr/local/xenon/usr/lib/libxenon.a(ucode.o)
 .data          0x0000000000000000        0x0 /usr/local/xenon/usr/lib/libxenon.a(ucode.o)
 .bss           0x0000000000000000        0x0 /usr/local/xenon/usr/lib/libxenon.a(ucode.o)
 .text          0x0000000000000000        0x0 /usr/local/xenon/usr/lib/libxenon.a(disk_rb.o)
 .data          0x0000000000000000        0x0 /usr/local/xenon/usr/lib/libxenon.a(disk_rb.o)
 .bss           0x0000000000000000        0x0 /usr/local/xenon/usr/lib/libxenon.a(disk_rb.o)
 .text.disk_partinfo
                0x0000000000000000       0x14 /usr/local/xenon/usr/lib/libxenon.a(disk_rb.o)
 .text.disk_unmount
                0x0000000000000000       0x78 /usr/local/xenon/usr/lib/libxenon.a(disk_rb.o)
 .text          0x0000000000000000        0x0 /usr/local/xenon/usr/lib/libxenon.a(lib_queue.o)
 .data          0x0000000000000000        0x0 /usr/local/xenon/usr/lib/libxenon.a(lib_queue.o)
 .bss           0x0000000000000000        0x0 /usr/local/xenon/usr/lib/libxenon.a(lib_queue.o)
 .text.q_dequeue
                0x0000000000000000       0x18 /usr/local/xenon/usr/lib/libxenon.a(lib_queue.o)
 .text.q_map    0x0000000000000000       0x60 /usr/local/xenon/usr/lib/libxenon.a(lib_queue.o)
 .text.q_count  0x0000000000000000       0x24 /usr/local/xenon/usr/lib/libxenon.a(lib_queue.o)
 .text.q_find   0x0000000000000000       0x34 /usr/local/xenon/usr/lib/libxenon.a(lib_queue.o)
 .text          0x0000000000000000        0x0 /usr/local/xenon/usr/lib/libxenon.a(usbctrl.o)
 .data          0x0000000000000000        0x0 /usr/local/xenon/usr/lib/libxenon.a(usbctrl.o)
 .bss           0x0000000000000000        0x0 /usr/local/xenon/usr/lib/libxenon.a(usbctrl.o)
 .text          0x0000000000000000        0x0 /usr/local/xenon/usr/lib/libxenon.a(usbdebug.o)
 .data          0x0000000000000000        0x0 /usr/local/xenon/usr/lib/libxenon.a(usbdebug.o)
 .bss           0x0000000000000000        0x0 /usr/local/xenon/usr/lib/libxenon.a(usbdebug.o)
 .text.usb_dbg_dumpcfgdescr
                0x0000000000000000       0xb8 /usr/local/xenon/usr/lib/libxenon.a(usbdebug.o)
 .text.usb_dbg_dumpdevice
                0x0000000000000000       0xc8 /usr/local/xenon/usr/lib/libxenon.a(usbdebug.o)
 .text.usb_dbg_showdevice
                0x0000000000000000       0x78 /usr/local/xenon/usr/lib/libxenon.a(usbdebug.o)
 .text          0x0000000000000000        0x0 /usr/local/xenon/usr/lib/libxenon.a(xenon_sfcx.o)
 .data          0x0000000000000000        0x0 /usr/local/xenon/usr/lib/libxenon.a(xenon_sfcx.o)
 .bss           0x0000000000000000        0x0 /usr/local/xenon/usr/lib/libxenon.a(xenon_sfcx.o)
 .text.sfcx_writereg
                0x0000000000000000       0x10 /usr/local/xenon/usr/lib/libxenon.a(xenon_sfcx.o)
 .text.sfcx_readreg
                0x0000000000000000       0x10 /usr/local/xenon/usr/lib/libxenon.a(xenon_sfcx.o)
 .text.sfcx_write_page
                0x0000000000000000      0x140 /usr/local/xenon/usr/lib/libxenon.a(xenon_sfcx.o)
 .text.sfcx_read_block
                0x0000000000000000       0x88 /usr/local/xenon/usr/lib/libxenon.a(xenon_sfcx.o)
 .text.sfcx_write_block
                0x0000000000000000       0x6c /usr/local/xenon/usr/lib/libxenon.a(xenon_sfcx.o)
 .text.sfcx_erase_block
                0x0000000000000000       0xc8 /usr/local/xenon/usr/lib/libxenon.a(xenon_sfcx.o)
 .text.sfcx_calcecc
                0x0000000000000000       0xa4 /usr/local/xenon/usr/lib/libxenon.a(xenon_sfcx.o)
 .text.sfcx_get_blocknumber
                0x0000000000000000       0x64 /usr/local/xenon/usr/lib/libxenon.a(xenon_sfcx.o)
 .text.sfcx_set_blocknumber
                0x0000000000000000       0x60 /usr/local/xenon/usr/lib/libxenon.a(xenon_sfcx.o)
 .text.sfcx_get_blockversion
                0x0000000000000000       0xac /usr/local/xenon/usr/lib/libxenon.a(xenon_sfcx.o)
 .text.sfcx_set_blockversion
                0x0000000000000000       0x80 /usr/local/xenon/usr/lib/libxenon.a(xenon_sfcx.o)
 .text.sfcx_set_pagevalid
                0x0000000000000000       0x48 /usr/local/xenon/usr/lib/libxenon.a(xenon_sfcx.o)
 .text.sfcx_set_pageinvalid
                0x0000000000000000       0x54 /usr/local/xenon/usr/lib/libxenon.a(xenon_sfcx.o)
 .text.sfcx_is_pagevalid
                0x0000000000000000       0x54 /usr/local/xenon/usr/lib/libxenon.a(xenon_sfcx.o)
 .text.sfcx_block_to_address
                0x0000000000000000       0x10 /usr/local/xenon/usr/lib/libxenon.a(xenon_sfcx.o)
 .text.sfcx_address_to_block
                0x0000000000000000       0x10 /usr/local/xenon/usr/lib/libxenon.a(xenon_sfcx.o)
 .data          0x0000000000000000        0x0 /usr/local/xenon/usr/lib/libpng.a(libpng15_la-png.o)
 .bss           0x0000000000000000        0x0 /usr/local/xenon/usr/lib/libpng.a(libpng15_la-png.o)
 .data          0x0000000000000000        0x0 /usr/local/xenon/usr/lib/libpng.a(libpng15_la-pngerror.o)
 .bss           0x0000000000000000        0x0 /usr/local/xenon/usr/lib/libpng.a(libpng15_la-pngerror.o)
 .data          0x0000000000000000        0x0 /usr/local/xenon/usr/lib/libpng.a(libpng15_la-pngmem.o)
 .bss           0x0000000000000000        0x0 /usr/local/xenon/usr/lib/libpng.a(libpng15_la-pngmem.o)
 .data          0x0000000000000000        0x0 /usr/local/xenon/usr/lib/libpng.a(libpng15_la-pngread.o)
 .bss           0x0000000000000000        0x0 /usr/local/xenon/usr/lib/libpng.a(libpng15_la-pngread.o)
 .data          0x0000000000000000        0x0 /usr/local/xenon/usr/lib/libpng.a(libpng15_la-pngrio.o)
 .bss           0x0000000000000000        0x0 /usr/local/xenon/usr/lib/libpng.a(libpng15_la-pngrio.o)
 .data          0x0000000000000000        0x0 /usr/local/xenon/usr/lib/libpng.a(libpng15_la-pngrtran.o)
 .bss           0x0000000000000000        0x0 /usr/local/xenon/usr/lib/libpng.a(libpng15_la-pngrtran.o)
 .data          0x0000000000000000        0x0 /usr/local/xenon/usr/lib/libpng.a(libpng15_la-pngrutil.o)
 .bss           0x0000000000000000        0x0 /usr/local/xenon/usr/lib/libpng.a(libpng15_la-pngrutil.o)
 .data          0x0000000000000000        0x0 /usr/local/xenon/usr/lib/libpng.a(libpng15_la-pngset.o)
 .bss           0x0000000000000000        0x0 /usr/local/xenon/usr/lib/libpng.a(libpng15_la-pngset.o)
 .data          0x0000000000000000        0x0 /usr/local/xenon/usr/lib/libpng.a(libpng15_la-pngtrans.o)
 .bss           0x0000000000000000        0x0 /usr/local/xenon/usr/lib/libpng.a(libpng15_la-pngtrans.o)
 .data          0x0000000000000000        0x0 /usr/local/xenon/usr/lib/libpng.a(libpng15_la-pngget.o)
 .bss           0x0000000000000000        0x0 /usr/local/xenon/usr/lib/libpng.a(libpng15_la-pngget.o)
 .data          0x0000000000000000        0x0 /usr/local/xenon/usr/lib/libz.a(crc32.o)
 .bss           0x0000000000000000        0x0 /usr/local/xenon/usr/lib/libz.a(crc32.o)
 .data          0x0000000000000000        0x0 /usr/local/xenon/usr/lib/libz.a(inflate.o)
 .bss           0x0000000000000000        0x0 /usr/local/xenon/usr/lib/libz.a(inflate.o)
 .data          0x0000000000000000        0x0 /usr/local/xenon/usr/lib/libz.a(inftrees.o)
 .bss           0x0000000000000000        0x0 /usr/local/xenon/usr/lib/libz.a(inftrees.o)
 .data          0x0000000000000000        0x0 /usr/local/xenon/usr/lib/libz.a(zutil.o)
 .bss           0x0000000000000000        0x0 /usr/local/xenon/usr/lib/libz.a(zutil.o)
 .data          0x0000000000000000        0x0 /usr/local/xenon/usr/lib/libz.a(adler32.o)
 .bss           0x0000000000000000        0x0 /usr/local/xenon/usr/lib/libz.a(adler32.o)
 .data          0x0000000000000000        0x0 /usr/local/xenon/usr/lib/libz.a(inffast.o)
 .bss           0x0000000000000000        0x0 /usr/local/xenon/usr/lib/libz.a(inffast.o)
 .group         0x0000000000000000        0x8 /usr/local/xenon/lib/gcc/xenon/4.6.0/../../../../xenon/lib/../lib/libstdc++.a(new_opv.o)
 .group         0x0000000000000000        0x8 /usr/local/xenon/lib/gcc/xenon/4.6.0/../../../../xenon/lib/../lib/libstdc++.a(new_opv.o)
 .text          0x0000000000000000        0x0 /usr/local/xenon/lib/gcc/xenon/4.6.0/../../../../xenon/lib/../lib/libstdc++.a(new_opv.o)
 .data          0x0000000000000000        0x0 /usr/local/xenon/lib/gcc/xenon/4.6.0/../../../../xenon/lib/../lib/libstdc++.a(new_opv.o)
 .bss           0x0000000000000000        0x0 /usr/local/xenon/lib/gcc/xenon/4.6.0/../../../../xenon/lib/../lib/libstdc++.a(new_opv.o)
 .got2          0x0000000000000000        0x0 /usr/local/xenon/lib/gcc/xenon/4.6.0/../../../../xenon/lib/../lib/libstdc++.a(new_opv.o)
 .group         0x0000000000000000        0x8 /usr/local/xenon/lib/gcc/xenon/4.6.0/../../../../xenon/lib/../lib/libstdc++.a(eh_personality.o)
 .text          0x0000000000000000        0x0 /usr/local/xenon/lib/gcc/xenon/4.6.0/../../../../xenon/lib/../lib/libstdc++.a(eh_personality.o)
 .data          0x0000000000000000        0x0 /usr/local/xenon/lib/gcc/xenon/4.6.0/../../../../xenon/lib/../lib/libstdc++.a(eh_personality.o)
 .bss           0x0000000000000000        0x0 /usr/local/xenon/lib/gcc/xenon/4.6.0/../../../../xenon/lib/../lib/libstdc++.a(eh_personality.o)
 .data.DW.ref.__gxx_personality_v0
                0x0000000000000000        0x4 /usr/local/xenon/lib/gcc/xenon/4.6.0/../../../../xenon/lib/../lib/libstdc++.a(eh_personality.o)
 .text          0x0000000000000000        0x0 /usr/local/xenon/lib/gcc/xenon/4.6.0/../../../../xenon/lib/../lib/libstdc++.a(eh_alloc.o)
 .data          0x0000000000000000        0x0 /usr/local/xenon/lib/gcc/xenon/4.6.0/../../../../xenon/lib/../lib/libstdc++.a(eh_alloc.o)
 .bss           0x0000000000000000        0x0 /usr/local/xenon/lib/gcc/xenon/4.6.0/../../../../xenon/lib/../lib/libstdc++.a(eh_alloc.o)
 .text.__cxa_allocate_dependent_exception
                0x0000000000000000       0xe0 /usr/local/xenon/lib/gcc/xenon/4.6.0/../../../../xenon/lib/../lib/libstdc++.a(eh_alloc.o)
 .text.__cxa_free_dependent_exception
                0x0000000000000000       0x98 /usr/local/xenon/lib/gcc/xenon/4.6.0/../../../../xenon/lib/../lib/libstdc++.a(eh_alloc.o)
 .group         0x0000000000000000        0x8 /usr/local/xenon/lib/gcc/xenon/4.6.0/../../../../xenon/lib/../lib/libstdc++.a(bad_alloc.o)
 .group         0x0000000000000000        0x8 /usr/local/xenon/lib/gcc/xenon/4.6.0/../../../../xenon/lib/../lib/libstdc++.a(bad_alloc.o)
 .group         0x0000000000000000        0x8 /usr/local/xenon/lib/gcc/xenon/4.6.0/../../../../xenon/lib/../lib/libstdc++.a(bad_alloc.o)
 .text          0x0000000000000000        0x0 /usr/local/xenon/lib/gcc/xenon/4.6.0/../../../../xenon/lib/../lib/libstdc++.a(bad_alloc.o)
 .data          0x0000000000000000        0x0 /usr/local/xenon/lib/gcc/xenon/4.6.0/../../../../xenon/lib/../lib/libstdc++.a(bad_alloc.o)
 .bss           0x0000000000000000        0x0 /usr/local/xenon/lib/gcc/xenon/4.6.0/../../../../xenon/lib/../lib/libstdc++.a(bad_alloc.o)
 .text          0x0000000000000000        0x0 /usr/local/xenon/lib/gcc/xenon/4.6.0/../../../../xenon/lib/../lib/libstdc++.a(del_op.o)
 .data          0x0000000000000000        0x0 /usr/local/xenon/lib/gcc/xenon/4.6.0/../../../../xenon/lib/../lib/libstdc++.a(del_op.o)
 .bss           0x0000000000000000        0x0 /usr/local/xenon/lib/gcc/xenon/4.6.0/../../../../xenon/lib/../lib/libstdc++.a(del_op.o)
 .got2          0x0000000000000000        0x0 /usr/local/xenon/lib/gcc/xenon/4.6.0/../../../../xenon/lib/../lib/libstdc++.a(del_op.o)
 .text          0x0000000000000000        0x0 /usr/local/xenon/lib/gcc/xenon/4.6.0/../../../../xenon/lib/../lib/libstdc++.a(eh_catch.o)
 .data          0x0000000000000000        0x0 /usr/local/xenon/lib/gcc/xenon/4.6.0/../../../../xenon/lib/../lib/libstdc++.a(eh_catch.o)
 .bss           0x0000000000000000        0x0 /usr/local/xenon/lib/gcc/xenon/4.6.0/../../../../xenon/lib/../lib/libstdc++.a(eh_catch.o)
 .got2          0x0000000000000000        0x0 /usr/local/xenon/lib/gcc/xenon/4.6.0/../../../../xenon/lib/../lib/libstdc++.a(eh_catch.o)
 .text.__cxa_get_exception_ptr
                0x0000000000000000        0x8 /usr/local/xenon/lib/gcc/xenon/4.6.0/../../../../xenon/lib/../lib/libstdc++.a(eh_catch.o)
 .text._ZSt18uncaught_exceptionv
                0x0000000000000000       0x30 /usr/local/xenon/lib/gcc/xenon/4.6.0/../../../../xenon/lib/../lib/libstdc++.a(eh_catch.o)
 .group         0x0000000000000000        0x8 /usr/local/xenon/lib/gcc/xenon/4.6.0/../../../../xenon/lib/../lib/libstdc++.a(new_op.o)
 .group         0x0000000000000000        0x8 /usr/local/xenon/lib/gcc/xenon/4.6.0/../../../../xenon/lib/../lib/libstdc++.a(new_op.o)
 .text          0x0000000000000000        0x0 /usr/local/xenon/lib/gcc/xenon/4.6.0/../../../../xenon/lib/../lib/libstdc++.a(new_op.o)
 .data          0x0000000000000000        0x0 /usr/local/xenon/lib/gcc/xenon/4.6.0/../../../../xenon/lib/../lib/libstdc++.a(new_op.o)
 .bss           0x0000000000000000        0x0 /usr/local/xenon/lib/gcc/xenon/4.6.0/../../../../xenon/lib/../lib/libstdc++.a(new_op.o)
 .data.DW.ref._ZTISt9bad_alloc
                0x0000000000000000        0x4 /usr/local/xenon/lib/gcc/xenon/4.6.0/../../../../xenon/lib/../lib/libstdc++.a(new_op.o)
 .data.DW.ref.__gxx_personality_v0
                0x0000000000000000        0x4 /usr/local/xenon/lib/gcc/xenon/4.6.0/../../../../xenon/lib/../lib/libstdc++.a(new_op.o)
 .group         0x0000000000000000        0x8 /usr/local/xenon/lib/gcc/xenon/4.6.0/../../../../xenon/lib/../lib/libstdc++.a(eh_terminate.o)
 .text          0x0000000000000000        0x0 /usr/local/xenon/lib/gcc/xenon/4.6.0/../../../../xenon/lib/../lib/libstdc++.a(eh_terminate.o)
 .data          0x0000000000000000        0x0 /usr/local/xenon/lib/gcc/xenon/4.6.0/../../../../xenon/lib/../lib/libstdc++.a(eh_terminate.o)
 .bss           0x0000000000000000        0x0 /usr/local/xenon/lib/gcc/xenon/4.6.0/../../../../xenon/lib/../lib/libstdc++.a(eh_terminate.o)
 .text._ZSt13set_terminatePFvvE
                0x0000000000000000       0x48 /usr/local/xenon/lib/gcc/xenon/4.6.0/../../../../xenon/lib/../lib/libstdc++.a(eh_terminate.o)
 .text._ZSt14set_unexpectedPFvvE
                0x0000000000000000       0x48 /usr/local/xenon/lib/gcc/xenon/4.6.0/../../../../xenon/lib/../lib/libstdc++.a(eh_terminate.o)
 .data.DW.ref.__gxx_personality_v0
                0x0000000000000000        0x4 /usr/local/xenon/lib/gcc/xenon/4.6.0/../../../../xenon/lib/../lib/libstdc++.a(eh_terminate.o)
 .group         0x0000000000000000        0x8 /usr/local/xenon/lib/gcc/xenon/4.6.0/../../../../xenon/lib/../lib/libstdc++.a(eh_exception.o)
 .group         0x0000000000000000        0x8 /usr/local/xenon/lib/gcc/xenon/4.6.0/../../../../xenon/lib/../lib/libstdc++.a(eh_exception.o)
 .group         0x0000000000000000        0x8 /usr/local/xenon/lib/gcc/xenon/4.6.0/../../../../xenon/lib/../lib/libstdc++.a(eh_exception.o)
 .group         0x0000000000000000        0x8 /usr/local/xenon/lib/gcc/xenon/4.6.0/../../../../xenon/lib/../lib/libstdc++.a(eh_exception.o)
 .group         0x0000000000000000        0x8 /usr/local/xenon/lib/gcc/xenon/4.6.0/../../../../xenon/lib/../lib/libstdc++.a(eh_exception.o)
 .group         0x0000000000000000        0x8 /usr/local/xenon/lib/gcc/xenon/4.6.0/../../../../xenon/lib/../lib/libstdc++.a(eh_exception.o)
 .group         0x0000000000000000        0x8 /usr/local/xenon/lib/gcc/xenon/4.6.0/../../../../xenon/lib/../lib/libstdc++.a(eh_exception.o)
 .group         0x0000000000000000        0x8 /usr/local/xenon/lib/gcc/xenon/4.6.0/../../../../xenon/lib/../lib/libstdc++.a(eh_exception.o)
 .group         0x0000000000000000        0x8 /usr/local/xenon/lib/gcc/xenon/4.6.0/../../../../xenon/lib/../lib/libstdc++.a(eh_exception.o)
 .group         0x0000000000000000        0x8 /usr/local/xenon/lib/gcc/xenon/4.6.0/../../../../xenon/lib/../lib/libstdc++.a(eh_exception.o)
 .group         0x0000000000000000        0x8 /usr/local/xenon/lib/gcc/xenon/4.6.0/../../../../xenon/lib/../lib/libstdc++.a(eh_exception.o)
 .group         0x0000000000000000        0x8 /usr/local/xenon/lib/gcc/xenon/4.6.0/../../../../xenon/lib/../lib/libstdc++.a(eh_exception.o)
 .text          0x0000000000000000        0x0 /usr/local/xenon/lib/gcc/xenon/4.6.0/../../../../xenon/lib/../lib/libstdc++.a(eh_exception.o)
 .data          0x0000000000000000        0x0 /usr/local/xenon/lib/gcc/xenon/4.6.0/../../../../xenon/lib/../lib/libstdc++.a(eh_exception.o)
 .bss           0x0000000000000000        0x0 /usr/local/xenon/lib/gcc/xenon/4.6.0/../../../../xenon/lib/../lib/libstdc++.a(eh_exception.o)
 .text          0x0000000000000000        0x0 /usr/local/xenon/lib/gcc/xenon/4.6.0/../../../../xenon/lib/../lib/libstdc++.a(eh_call.o)
 .data          0x0000000000000000        0x0 /usr/local/xenon/lib/gcc/xenon/4.6.0/../../../../xenon/lib/../lib/libstdc++.a(eh_call.o)
 .bss           0x0000000000000000        0x0 /usr/local/xenon/lib/gcc/xenon/4.6.0/../../../../xenon/lib/../lib/libstdc++.a(eh_call.o)
 .got2          0x0000000000000000        0x0 /usr/local/xenon/lib/gcc/xenon/4.6.0/../../../../xenon/lib/../lib/libstdc++.a(eh_call.o)
 .text          0x0000000000000000        0x0 /usr/local/xenon/lib/gcc/xenon/4.6.0/../../../../xenon/lib/../lib/libstdc++.a(eh_globals.o)
 .data          0x0000000000000000        0x0 /usr/local/xenon/lib/gcc/xenon/4.6.0/../../../../xenon/lib/../lib/libstdc++.a(eh_globals.o)
 .bss           0x0000000000000000        0x0 /usr/local/xenon/lib/gcc/xenon/4.6.0/../../../../xenon/lib/../lib/libstdc++.a(eh_globals.o)
 .group         0x0000000000000000        0x8 /usr/local/xenon/lib/gcc/xenon/4.6.0/../../../../xenon/lib/../lib/libstdc++.a(class_type_info.o)
 .group         0x0000000000000000        0x8 /usr/local/xenon/lib/gcc/xenon/4.6.0/../../../../xenon/lib/../lib/libstdc++.a(class_type_info.o)
 .group         0x0000000000000000        0x8 /usr/local/xenon/lib/gcc/xenon/4.6.0/../../../../xenon/lib/../lib/libstdc++.a(class_type_info.o)
 .text          0x0000000000000000        0x0 /usr/local/xenon/lib/gcc/xenon/4.6.0/../../../../xenon/lib/../lib/libstdc++.a(class_type_info.o)
 .data          0x0000000000000000        0x0 /usr/local/xenon/lib/gcc/xenon/4.6.0/../../../../xenon/lib/../lib/libstdc++.a(class_type_info.o)
 .bss           0x0000000000000000        0x0 /usr/local/xenon/lib/gcc/xenon/4.6.0/../../../../xenon/lib/../lib/libstdc++.a(class_type_info.o)
 .text          0x0000000000000000        0x0 /usr/local/xenon/lib/gcc/xenon/4.6.0/../../../../xenon/lib/../lib/libstdc++.a(eh_term_handler.o)
 .data          0x0000000000000000        0x0 /usr/local/xenon/lib/gcc/xenon/4.6.0/../../../../xenon/lib/../lib/libstdc++.a(eh_term_handler.o)
 .bss           0x0000000000000000        0x0 /usr/local/xenon/lib/gcc/xenon/4.6.0/../../../../xenon/lib/../lib/libstdc++.a(eh_term_handler.o)
 .got2          0x0000000000000000        0x0 /usr/local/xenon/lib/gcc/xenon/4.6.0/../../../../xenon/lib/../lib/libstdc++.a(eh_term_handler.o)
 .group         0x0000000000000000        0x8 /usr/local/xenon/lib/gcc/xenon/4.6.0/../../../../xenon/lib/../lib/libstdc++.a(si_class_type_info.o)
 .group         0x0000000000000000        0x8 /usr/local/xenon/lib/gcc/xenon/4.6.0/../../../../xenon/lib/../lib/libstdc++.a(si_class_type_info.o)
 .group         0x0000000000000000        0x8 /usr/local/xenon/lib/gcc/xenon/4.6.0/../../../../xenon/lib/../lib/libstdc++.a(si_class_type_info.o)
 .text          0x0000000000000000        0x0 /usr/local/xenon/lib/gcc/xenon/4.6.0/../../../../xenon/lib/../lib/libstdc++.a(si_class_type_info.o)
 .data          0x0000000000000000        0x0 /usr/local/xenon/lib/gcc/xenon/4.6.0/../../../../xenon/lib/../lib/libstdc++.a(si_class_type_info.o)
 .bss           0x0000000000000000        0x0 /usr/local/xenon/lib/gcc/xenon/4.6.0/../../../../xenon/lib/../lib/libstdc++.a(si_class_type_info.o)
 .text          0x0000000000000000        0x0 /usr/local/xenon/lib/gcc/xenon/4.6.0/../../../../xenon/lib/../lib/libstdc++.a(eh_unex_handler.o)
 .data          0x0000000000000000        0x0 /usr/local/xenon/lib/gcc/xenon/4.6.0/../../../../xenon/lib/../lib/libstdc++.a(eh_unex_handler.o)
 .bss           0x0000000000000000        0x0 /usr/local/xenon/lib/gcc/xenon/4.6.0/../../../../xenon/lib/../lib/libstdc++.a(eh_unex_handler.o)
 .got2          0x0000000000000000        0x0 /usr/local/xenon/lib/gcc/xenon/4.6.0/../../../../xenon/lib/../lib/libstdc++.a(eh_unex_handler.o)
 .group         0x0000000000000000        0x8 /usr/local/xenon/lib/gcc/xenon/4.6.0/../../../../xenon/lib/../lib/libstdc++.a(tinfo.o)
 .group         0x0000000000000000        0x8 /usr/local/xenon/lib/gcc/xenon/4.6.0/../../../../xenon/lib/../lib/libstdc++.a(tinfo.o)
 .group         0x0000000000000000        0x8 /usr/local/xenon/lib/gcc/xenon/4.6.0/../../../../xenon/lib/../lib/libstdc++.a(tinfo.o)
 .text          0x0000000000000000        0x0 /usr/local/xenon/lib/gcc/xenon/4.6.0/../../../../xenon/lib/../lib/libstdc++.a(tinfo.o)
 .data          0x0000000000000000        0x0 /usr/local/xenon/lib/gcc/xenon/4.6.0/../../../../xenon/lib/../lib/libstdc++.a(tinfo.o)
 .bss           0x0000000000000000        0x0 /usr/local/xenon/lib/gcc/xenon/4.6.0/../../../../xenon/lib/../lib/libstdc++.a(tinfo.o)
 .text          0x0000000000000000        0x0 /usr/local/xenon/lib/gcc/xenon/4.6.0/../../../../xenon/lib/../lib/libstdc++.a(eh_throw.o)
 .data          0x0000000000000000        0x0 /usr/local/xenon/lib/gcc/xenon/4.6.0/../../../../xenon/lib/../lib/libstdc++.a(eh_throw.o)
 .bss           0x0000000000000000        0x0 /usr/local/xenon/lib/gcc/xenon/4.6.0/../../../../xenon/lib/../lib/libstdc++.a(eh_throw.o)
 .text          0x0000000000000000        0x0 /usr/local/xenon/lib/gcc/xenon/4.6.0/../../../../xenon/lib/../lib/libstdc++.a(pure.o)
 .data          0x0000000000000000        0x0 /usr/local/xenon/lib/gcc/xenon/4.6.0/../../../../xenon/lib/../lib/libstdc++.a(pure.o)
 .bss           0x0000000000000000        0x0 /usr/local/xenon/lib/gcc/xenon/4.6.0/../../../../xenon/lib/../lib/libstdc++.a(pure.o)
 .group         0x0000000000000000        0x8 /usr/local/xenon/lib/gcc/xenon/4.6.0/../../../../xenon/lib/../lib/libstdc++.a(vterminate.o)
 .group         0x0000000000000000        0x8 /usr/local/xenon/lib/gcc/xenon/4.6.0/../../../../xenon/lib/../lib/libstdc++.a(vterminate.o)
 .text          0x0000000000000000        0x0 /usr/local/xenon/lib/gcc/xenon/4.6.0/../../../../xenon/lib/../lib/libstdc++.a(vterminate.o)
 .data          0x0000000000000000        0x0 /usr/local/xenon/lib/gcc/xenon/4.6.0/../../../../xenon/lib/../lib/libstdc++.a(vterminate.o)
 .bss           0x0000000000000000        0x0 /usr/local/xenon/lib/gcc/xenon/4.6.0/../../../../xenon/lib/../lib/libstdc++.a(vterminate.o)
 .data.DW.ref.__gxx_personality_v0
                0x0000000000000000        0x4 /usr/local/xenon/lib/gcc/xenon/4.6.0/../../../../xenon/lib/../lib/libstdc++.a(vterminate.o)
 .text          0x0000000000000000        0x0 /usr/local/xenon/lib/gcc/xenon/4.6.0/../../../../xenon/lib/../lib/libstdc++.a(new_handler.o)
 .data          0x0000000000000000        0x0 /usr/local/xenon/lib/gcc/xenon/4.6.0/../../../../xenon/lib/../lib/libstdc++.a(new_handler.o)
 .bss           0x0000000000000000        0x0 /usr/local/xenon/lib/gcc/xenon/4.6.0/../../../../xenon/lib/../lib/libstdc++.a(new_handler.o)
 .got2          0x0000000000000000        0x4 /usr/local/xenon/lib/gcc/xenon/4.6.0/../../../../xenon/lib/../lib/libstdc++.a(new_handler.o)
 .text._ZSt15set_new_handlerPFvvE
                0x0000000000000000       0x48 /usr/local/xenon/lib/gcc/xenon/4.6.0/../../../../xenon/lib/../lib/libstdc++.a(new_handler.o)
 .rodata._ZSt7nothrow
                0x0000000000000000        0x1 /usr/local/xenon/lib/gcc/xenon/4.6.0/../../../../xenon/lib/../lib/libstdc++.a(new_handler.o)
 .data          0x0000000000000000        0x0 /usr/local/xenon/lib/gcc/xenon/4.6.0/../../../../xenon/lib/../lib/libstdc++.a(cp-demangle.o)
 .bss           0x0000000000000000        0x0 /usr/local/xenon/lib/gcc/xenon/4.6.0/../../../../xenon/lib/../lib/libstdc++.a(cp-demangle.o)
 .text          0x0000000000000000        0x0 /usr/local/xenon/lib/gcc/xenon/4.6.0/../../../../xenon/lib/../lib/libstdc++.a(eh_type.o)
 .data          0x0000000000000000        0x0 /usr/local/xenon/lib/gcc/xenon/4.6.0/../../../../xenon/lib/../lib/libstdc++.a(eh_type.o)
 .bss           0x0000000000000000        0x0 /usr/local/xenon/lib/gcc/xenon/4.6.0/../../../../xenon/lib/../lib/libstdc++.a(eh_type.o)
 .got2          0x0000000000000000        0x0 /usr/local/xenon/lib/gcc/xenon/4.6.0/../../../../xenon/lib/../lib/libstdc++.a(eh_type.o)
 .data          0x0000000000000000        0x0 /usr/local/xenon/xenon/lib/32/libm.a(lib_a-s_floor.o)
 .bss           0x0000000000000000        0x0 /usr/local/xenon/xenon/lib/32/libm.a(lib_a-s_floor.o)
 .data          0x0000000000000000        0x0 /usr/local/xenon/xenon/lib/32/libm.a(lib_a-s_frexp.o)
 .bss           0x0000000000000000        0x0 /usr/local/xenon/xenon/lib/32/libm.a(lib_a-s_frexp.o)
 .data          0x0000000000000000        0x0 /usr/local/xenon/xenon/lib/32/libm.a(lib_a-s_modf.o)
 .bss           0x0000000000000000        0x0 /usr/local/xenon/xenon/lib/32/libm.a(lib_a-s_modf.o)
 .got2          0x0000000000000000        0x0 /usr/local/xenon/xenon/lib/32/libm.a(lib_a-s_modf.o)
 .data          0x0000000000000000        0x0 /usr/local/xenon/xenon/lib/32/libm.a(lib_a-s_trunc.o)
 .bss           0x0000000000000000        0x0 /usr/local/xenon/xenon/lib/32/libm.a(lib_a-s_trunc.o)
 .got2          0x0000000000000000        0x0 /usr/local/xenon/xenon/lib/32/libm.a(lib_a-s_trunc.o)
 .data          0x0000000000000000        0x0 /usr/local/xenon/xenon/lib/32/libm.a(lib_a-w_pow.o)
 .bss           0x0000000000000000        0x0 /usr/local/xenon/xenon/lib/32/libm.a(lib_a-w_pow.o)
 .data          0x0000000000000000        0x0 /usr/local/xenon/xenon/lib/32/libm.a(lib_a-e_pow.o)
 .bss           0x0000000000000000        0x0 /usr/local/xenon/xenon/lib/32/libm.a(lib_a-e_pow.o)
 .data          0x0000000000000000        0x0 /usr/local/xenon/xenon/lib/32/libm.a(lib_a-e_sqrt.o)
 .bss           0x0000000000000000        0x0 /usr/local/xenon/xenon/lib/32/libm.a(lib_a-e_sqrt.o)
 .got2          0x0000000000000000        0x0 /usr/local/xenon/xenon/lib/32/libm.a(lib_a-e_sqrt.o)
 .data          0x0000000000000000        0x0 /usr/local/xenon/xenon/lib/32/libm.a(lib_a-s_fabs.o)
 .bss           0x0000000000000000        0x0 /usr/local/xenon/xenon/lib/32/libm.a(lib_a-s_fabs.o)
 .got2          0x0000000000000000        0x0 /usr/local/xenon/xenon/lib/32/libm.a(lib_a-s_fabs.o)
 .data          0x0000000000000000        0x0 /usr/local/xenon/xenon/lib/32/libm.a(lib_a-s_finite.o)
 .bss           0x0000000000000000        0x0 /usr/local/xenon/xenon/lib/32/libm.a(lib_a-s_finite.o)
 .got2          0x0000000000000000        0x0 /usr/local/xenon/xenon/lib/32/libm.a(lib_a-s_finite.o)
 .data          0x0000000000000000        0x0 /usr/local/xenon/xenon/lib/32/libm.a(lib_a-s_isnand.o)
 .bss           0x0000000000000000        0x0 /usr/local/xenon/xenon/lib/32/libm.a(lib_a-s_isnand.o)
 .got2          0x0000000000000000        0x0 /usr/local/xenon/xenon/lib/32/libm.a(lib_a-s_isnand.o)
 .text          0x0000000000000000        0x0 /usr/local/xenon/xenon/lib/32/libm.a(lib_a-s_lib_ver.o)
 .data          0x0000000000000000        0x0 /usr/local/xenon/xenon/lib/32/libm.a(lib_a-s_lib_ver.o)
 .bss           0x0000000000000000        0x0 /usr/local/xenon/xenon/lib/32/libm.a(lib_a-s_lib_ver.o)
 .got2          0x0000000000000000        0x0 /usr/local/xenon/xenon/lib/32/libm.a(lib_a-s_lib_ver.o)
 .data          0x0000000000000000        0x0 /usr/local/xenon/xenon/lib/32/libm.a(lib_a-s_matherr.o)
 .bss           0x0000000000000000        0x0 /usr/local/xenon/xenon/lib/32/libm.a(lib_a-s_matherr.o)
 .got2          0x0000000000000000        0x0 /usr/local/xenon/xenon/lib/32/libm.a(lib_a-s_matherr.o)
 .data          0x0000000000000000        0x0 /usr/local/xenon/xenon/lib/32/libm.a(lib_a-s_nan.o)
 .bss           0x0000000000000000        0x0 /usr/local/xenon/xenon/lib/32/libm.a(lib_a-s_nan.o)
 .got2          0x0000000000000000        0x0 /usr/local/xenon/xenon/lib/32/libm.a(lib_a-s_nan.o)
 .data          0x0000000000000000        0x0 /usr/local/xenon/xenon/lib/32/libm.a(lib_a-s_rint.o)
 .bss           0x0000000000000000        0x0 /usr/local/xenon/xenon/lib/32/libm.a(lib_a-s_rint.o)
 .data          0x0000000000000000        0x0 /usr/local/xenon/xenon/lib/32/libm.a(lib_a-s_scalbn.o)
 .bss           0x0000000000000000        0x0 /usr/local/xenon/xenon/lib/32/libm.a(lib_a-s_scalbn.o)
 .data          0x0000000000000000        0x0 /usr/local/xenon/xenon/lib/32/libm.a(lib_a-s_copysign.o)
 .bss           0x0000000000000000        0x0 /usr/local/xenon/xenon/lib/32/libm.a(lib_a-s_copysign.o)
 .got2          0x0000000000000000        0x0 /usr/local/xenon/xenon/lib/32/libm.a(lib_a-s_copysign.o)
 .data          0x0000000000000000        0x0 /usr/local/xenon/lib/gcc/xenon/4.6.0/32/libgcc.a(crtsavgpr.o)
 .bss           0x0000000000000000        0x0 /usr/local/xenon/lib/gcc/xenon/4.6.0/32/libgcc.a(crtsavgpr.o)
 .data          0x0000000000000000        0x0 /usr/local/xenon/lib/gcc/xenon/4.6.0/32/libgcc.a(crtresxgpr.o)
 .bss           0x0000000000000000        0x0 /usr/local/xenon/lib/gcc/xenon/4.6.0/32/libgcc.a(crtresxgpr.o)
 .data          0x0000000000000000        0x0 /usr/local/xenon/lib/gcc/xenon/4.6.0/32/libgcc.a(unwind-dw2.o)
 .data          0x0000000000000000        0x0 /usr/local/xenon/lib/gcc/xenon/4.6.0/32/libgcc.a(unwind-dw2-fde-glibc.o)
 .data          0x0000000000000000        0x0 /usr/local/xenon/xenon/lib/32/libc.a(lib_a-abort.o)
 .bss           0x0000000000000000        0x0 /usr/local/xenon/xenon/lib/32/libc.a(lib_a-abort.o)
 .got2          0x0000000000000000        0x0 /usr/local/xenon/xenon/lib/32/libc.a(lib_a-abort.o)
 .data          0x0000000000000000        0x0 /usr/local/xenon/xenon/lib/32/libc.a(lib_a-assert.o)
 .bss           0x0000000000000000        0x0 /usr/local/xenon/xenon/lib/32/libc.a(lib_a-assert.o)
 .data          0x0000000000000000        0x0 /usr/local/xenon/xenon/lib/32/libc.a(lib_a-atof.o)
 .bss           0x0000000000000000        0x0 /usr/local/xenon/xenon/lib/32/libc.a(lib_a-atof.o)
 .got2          0x0000000000000000        0x0 /usr/local/xenon/xenon/lib/32/libc.a(lib_a-atof.o)
 .data          0x0000000000000000        0x0 /usr/local/xenon/xenon/lib/32/libc.a(lib_a-atoi.o)
 .bss           0x0000000000000000        0x0 /usr/local/xenon/xenon/lib/32/libc.a(lib_a-atoi.o)
 .got2          0x0000000000000000        0x0 /usr/local/xenon/xenon/lib/32/libc.a(lib_a-atoi.o)
 .text          0x0000000000000000        0x0 /usr/local/xenon/xenon/lib/32/libc.a(lib_a-ctype_.o)
 .data          0x0000000000000000        0x0 /usr/local/xenon/xenon/lib/32/libc.a(lib_a-ctype_.o)
 .bss           0x0000000000000000        0x0 /usr/local/xenon/xenon/lib/32/libc.a(lib_a-ctype_.o)
 .got2          0x0000000000000000        0x0 /usr/local/xenon/xenon/lib/32/libc.a(lib_a-ctype_.o)
 .text          0x0000000000000000       0x38 /usr/local/xenon/xenon/lib/32/libc.a(lib_a-cxa_atexit.o)
 .data          0x0000000000000000        0x0 /usr/local/xenon/xenon/lib/32/libc.a(lib_a-cxa_atexit.o)
 .bss           0x0000000000000000        0x0 /usr/local/xenon/xenon/lib/32/libc.a(lib_a-cxa_atexit.o)
 .got2          0x0000000000000000        0x0 /usr/local/xenon/xenon/lib/32/libc.a(lib_a-cxa_atexit.o)
 .data          0x0000000000000000        0x0 /usr/local/xenon/xenon/lib/32/libc.a(lib_a-errno.o)
 .bss           0x0000000000000000        0x0 /usr/local/xenon/xenon/lib/32/libc.a(lib_a-errno.o)
 .data          0x0000000000000000        0x0 /usr/local/xenon/xenon/lib/32/libc.a(lib_a-exit.o)
 .bss           0x0000000000000000        0x0 /usr/local/xenon/xenon/lib/32/libc.a(lib_a-exit.o)
 .data          0x0000000000000000        0x0 /usr/local/xenon/xenon/lib/32/libc.a(lib_a-fclose.o)
 .bss           0x0000000000000000        0x0 /usr/local/xenon/xenon/lib/32/libc.a(lib_a-fclose.o)
 .data          0x0000000000000000        0x0 /usr/local/xenon/xenon/lib/32/libc.a(lib_a-fflush.o)
 .bss           0x0000000000000000        0x0 /usr/local/xenon/xenon/lib/32/libc.a(lib_a-fflush.o)
 .data          0x0000000000000000        0x0 /usr/local/xenon/xenon/lib/32/libc.a(lib_a-findfp.o)
 .bss           0x0000000000000000        0x0 /usr/local/xenon/xenon/lib/32/libc.a(lib_a-findfp.o)
 .data          0x0000000000000000        0x0 /usr/local/xenon/xenon/lib/32/libc.a(lib_a-fiprintf.o)
 .bss           0x0000000000000000        0x0 /usr/local/xenon/xenon/lib/32/libc.a(lib_a-fiprintf.o)
 .data          0x0000000000000000        0x0 /usr/local/xenon/xenon/lib/32/libc.a(lib_a-fopen.o)
 .bss           0x0000000000000000        0x0 /usr/local/xenon/xenon/lib/32/libc.a(lib_a-fopen.o)
 .data          0x0000000000000000        0x0 /usr/local/xenon/xenon/lib/32/libc.a(lib_a-fprintf.o)
 .bss           0x0000000000000000        0x0 /usr/local/xenon/xenon/lib/32/libc.a(lib_a-fprintf.o)
 .data          0x0000000000000000        0x0 /usr/local/xenon/xenon/lib/32/libc.a(lib_a-fputc.o)
 .bss           0x0000000000000000        0x0 /usr/local/xenon/xenon/lib/32/libc.a(lib_a-fputc.o)
 .data          0x0000000000000000        0x0 /usr/local/xenon/xenon/lib/32/libc.a(lib_a-fputs.o)
 .bss           0x0000000000000000        0x0 /usr/local/xenon/xenon/lib/32/libc.a(lib_a-fputs.o)
 .data          0x0000000000000000        0x0 /usr/local/xenon/xenon/lib/32/libc.a(lib_a-fread.o)
 .bss           0x0000000000000000        0x0 /usr/local/xenon/xenon/lib/32/libc.a(lib_a-fread.o)
 .data          0x0000000000000000        0x0 /usr/local/xenon/xenon/lib/32/libc.a(lib_a-freer.o)
 .bss           0x0000000000000000        0x0 /usr/local/xenon/xenon/lib/32/libc.a(lib_a-freer.o)
 .data          0x0000000000000000        0x0 /usr/local/xenon/xenon/lib/32/libc.a(lib_a-fseek.o)
 .bss           0x0000000000000000        0x0 /usr/local/xenon/xenon/lib/32/libc.a(lib_a-fseek.o)
 .data          0x0000000000000000        0x0 /usr/local/xenon/xenon/lib/32/libc.a(lib_a-fstatr.o)
 .bss           0x0000000000000000        0x0 /usr/local/xenon/xenon/lib/32/libc.a(lib_a-fstatr.o)
 .data          0x0000000000000000        0x0 /usr/local/xenon/xenon/lib/32/libc.a(lib_a-ftell.o)
 .bss           0x0000000000000000        0x0 /usr/local/xenon/xenon/lib/32/libc.a(lib_a-ftell.o)
 .data          0x0000000000000000        0x0 /usr/local/xenon/xenon/lib/32/libc.a(lib_a-fvwrite.o)
 .bss           0x0000000000000000        0x0 /usr/local/xenon/xenon/lib/32/libc.a(lib_a-fvwrite.o)
 .got2          0x0000000000000000        0x0 /usr/local/xenon/xenon/lib/32/libc.a(lib_a-fvwrite.o)
 .data          0x0000000000000000        0x0 /usr/local/xenon/xenon/lib/32/libc.a(lib_a-fwalk.o)
 .bss           0x0000000000000000        0x0 /usr/local/xenon/xenon/lib/32/libc.a(lib_a-fwalk.o)
 .got2          0x0000000000000000        0x0 /usr/local/xenon/xenon/lib/32/libc.a(lib_a-fwalk.o)
 .data          0x0000000000000000        0x0 /usr/local/xenon/xenon/lib/32/libc.a(lib_a-fwrite.o)
 .bss           0x0000000000000000        0x0 /usr/local/xenon/xenon/lib/32/libc.a(lib_a-fwrite.o)
 .text          0x0000000000000000        0x0 /usr/local/xenon/xenon/lib/32/libc.a(lib_a-impure.o)
 .data          0x0000000000000000        0x0 /usr/local/xenon/xenon/lib/32/libc.a(lib_a-impure.o)
 .bss           0x0000000000000000        0x0 /usr/local/xenon/xenon/lib/32/libc.a(lib_a-impure.o)
 .got2          0x0000000000000000        0x0 /usr/local/xenon/xenon/lib/32/libc.a(lib_a-impure.o)
 .data          0x0000000000000000        0x0 /usr/local/xenon/xenon/lib/32/libc.a(lib_a-makebuf.o)
 .bss           0x0000000000000000        0x0 /usr/local/xenon/xenon/lib/32/libc.a(lib_a-makebuf.o)
 .data          0x0000000000000000        0x0 /usr/local/xenon/xenon/lib/32/libc.a(lib_a-malign.o)
 .bss           0x0000000000000000        0x0 /usr/local/xenon/xenon/lib/32/libc.a(lib_a-malign.o)
 .data          0x0000000000000000        0x0 /usr/local/xenon/xenon/lib/32/libc.a(lib_a-malignr.o)
 .bss           0x0000000000000000        0x0 /usr/local/xenon/xenon/lib/32/libc.a(lib_a-malignr.o)
 .got2          0x0000000000000000        0x0 /usr/local/xenon/xenon/lib/32/libc.a(lib_a-malignr.o)
 .data          0x0000000000000000        0x0 /usr/local/xenon/xenon/lib/32/libc.a(lib_a-malloc.o)
 .bss           0x0000000000000000        0x0 /usr/local/xenon/xenon/lib/32/libc.a(lib_a-malloc.o)
 .data          0x0000000000000000        0x0 /usr/local/xenon/xenon/lib/32/libc.a(lib_a-mallocr.o)
 .data          0x0000000000000000        0x0 /usr/local/xenon/xenon/lib/32/libc.a(lib_a-memchr.o)
 .bss           0x0000000000000000        0x0 /usr/local/xenon/xenon/lib/32/libc.a(lib_a-memchr.o)
 .got2          0x0000000000000000        0x0 /usr/local/xenon/xenon/lib/32/libc.a(lib_a-memchr.o)
 .data          0x0000000000000000        0x0 /usr/local/xenon/xenon/lib/32/libc.a(lib_a-memcmp.o)
 .bss           0x0000000000000000        0x0 /usr/local/xenon/xenon/lib/32/libc.a(lib_a-memcmp.o)
 .got2          0x0000000000000000        0x0 /usr/local/xenon/xenon/lib/32/libc.a(lib_a-memcmp.o)
 .data          0x0000000000000000        0x0 /usr/local/xenon/xenon/lib/32/libc.a(lib_a-memcpy.o)
 .bss           0x0000000000000000        0x0 /usr/local/xenon/xenon/lib/32/libc.a(lib_a-memcpy.o)
 .got2          0x0000000000000000        0x0 /usr/local/xenon/xenon/lib/32/libc.a(lib_a-memcpy.o)
 .data          0x0000000000000000        0x0 /usr/local/xenon/xenon/lib/32/libc.a(lib_a-memmove.o)
 .bss           0x0000000000000000        0x0 /usr/local/xenon/xenon/lib/32/libc.a(lib_a-memmove.o)
 .got2          0x0000000000000000        0x0 /usr/local/xenon/xenon/lib/32/libc.a(lib_a-memmove.o)
 .data          0x0000000000000000        0x0 /usr/local/xenon/xenon/lib/32/libc.a(lib_a-memset.o)
 .bss           0x0000000000000000        0x0 /usr/local/xenon/xenon/lib/32/libc.a(lib_a-memset.o)
 .got2          0x0000000000000000        0x0 /usr/local/xenon/xenon/lib/32/libc.a(lib_a-memset.o)
 .data          0x0000000000000000        0x0 /usr/local/xenon/xenon/lib/32/libc.a(lib_a-mlock.o)
 .bss           0x0000000000000000        0x0 /usr/local/xenon/xenon/lib/32/libc.a(lib_a-mlock.o)
 .got2          0x0000000000000000        0x0 /usr/local/xenon/xenon/lib/32/libc.a(lib_a-mlock.o)
 .data          0x0000000000000000        0x0 /usr/local/xenon/xenon/lib/32/libc.a(lib_a-openr.o)
 .bss           0x0000000000000000        0x0 /usr/local/xenon/xenon/lib/32/libc.a(lib_a-openr.o)
 .data          0x0000000000000000        0x0 /usr/local/xenon/xenon/lib/32/libc.a(lib_a-printf.o)
 .bss           0x0000000000000000        0x0 /usr/local/xenon/xenon/lib/32/libc.a(lib_a-printf.o)
 .data          0x0000000000000000        0x0 /usr/local/xenon/xenon/lib/32/libc.a(lib_a-putchar.o)
 .bss           0x0000000000000000        0x0 /usr/local/xenon/xenon/lib/32/libc.a(lib_a-putchar.o)
 .data          0x0000000000000000        0x0 /usr/local/xenon/xenon/lib/32/libc.a(lib_a-putc.o)
 .bss           0x0000000000000000        0x0 /usr/local/xenon/xenon/lib/32/libc.a(lib_a-putc.o)
 .data          0x0000000000000000        0x0 /usr/local/xenon/xenon/lib/32/libc.a(lib_a-puts.o)
 .bss           0x0000000000000000        0x0 /usr/local/xenon/xenon/lib/32/libc.a(lib_a-puts.o)
 .data          0x0000000000000000        0x0 /usr/local/xenon/xenon/lib/32/libc.a(lib_a-rand.o)
 .bss           0x0000000000000000        0x0 /usr/local/xenon/xenon/lib/32/libc.a(lib_a-rand.o)
 .data          0x0000000000000000        0x0 /usr/local/xenon/xenon/lib/32/libc.a(lib_a-realloc.o)
 .bss           0x0000000000000000        0x0 /usr/local/xenon/xenon/lib/32/libc.a(lib_a-realloc.o)
 .data          0x0000000000000000        0x0 /usr/local/xenon/xenon/lib/32/libc.a(lib_a-reallocr.o)
 .bss           0x0000000000000000        0x0 /usr/local/xenon/xenon/lib/32/libc.a(lib_a-reallocr.o)
 .text          0x0000000000000000      0x294 /usr/local/xenon/xenon/lib/32/libc.a(lib_a-reent.o)
 .data          0x0000000000000000        0x0 /usr/local/xenon/xenon/lib/32/libc.a(lib_a-reent.o)
 .bss           0x0000000000000000        0x0 /usr/local/xenon/xenon/lib/32/libc.a(lib_a-reent.o)
 .got2          0x0000000000000000        0x4 /usr/local/xenon/xenon/lib/32/libc.a(lib_a-reent.o)
 .data          0x0000000000000000        0x0 /usr/local/xenon/xenon/lib/32/libc.a(lib_a-refill.o)
 .bss           0x0000000000000000        0x0 /usr/local/xenon/xenon/lib/32/libc.a(lib_a-refill.o)
 .data          0x0000000000000000        0x0 /usr/local/xenon/xenon/lib/32/libc.a(lib_a-sbrkr.o)
 .bss           0x0000000000000000        0x0 /usr/local/xenon/xenon/lib/32/libc.a(lib_a-sbrkr.o)
 .data          0x0000000000000000        0x0 /usr/local/xenon/xenon/lib/32/libc.a(lib_a-setjmp.o)
 .bss           0x0000000000000000        0x0 /usr/local/xenon/xenon/lib/32/libc.a(lib_a-setjmp.o)
 .data          0x0000000000000000        0x0 /usr/local/xenon/xenon/lib/32/libc.a(lib_a-signal.o)
 .bss           0x0000000000000000        0x0 /usr/local/xenon/xenon/lib/32/libc.a(lib_a-signal.o)
 .data          0x0000000000000000        0x0 /usr/local/xenon/xenon/lib/32/libc.a(lib_a-signalr.o)
 .bss           0x0000000000000000        0x0 /usr/local/xenon/xenon/lib/32/libc.a(lib_a-signalr.o)
 .data          0x0000000000000000        0x0 /usr/local/xenon/xenon/lib/32/libc.a(lib_a-snprintf.o)
 .bss           0x0000000000000000        0x0 /usr/local/xenon/xenon/lib/32/libc.a(lib_a-snprintf.o)
 .data          0x0000000000000000        0x0 /usr/local/xenon/xenon/lib/32/libc.a(lib_a-sprintf.o)
 .bss           0x0000000000000000        0x0 /usr/local/xenon/xenon/lib/32/libc.a(lib_a-sprintf.o)
 .data          0x0000000000000000        0x0 /usr/local/xenon/xenon/lib/32/libc.a(lib_a-stdio.o)
 .bss           0x0000000000000000        0x0 /usr/local/xenon/xenon/lib/32/libc.a(lib_a-stdio.o)
 .got2          0x0000000000000000        0x0 /usr/local/xenon/xenon/lib/32/libc.a(lib_a-stdio.o)
 .data          0x0000000000000000        0x0 /usr/local/xenon/xenon/lib/32/libc.a(lib_a-strcasecmp.o)
 .bss           0x0000000000000000        0x0 /usr/local/xenon/xenon/lib/32/libc.a(lib_a-strcasecmp.o)
 .data          0x0000000000000000        0x0 /usr/local/xenon/xenon/lib/32/libc.a(lib_a-strcat.o)
 .bss           0x0000000000000000        0x0 /usr/local/xenon/xenon/lib/32/libc.a(lib_a-strcat.o)
 .got2          0x0000000000000000        0x0 /usr/local/xenon/xenon/lib/32/libc.a(lib_a-strcat.o)
 .data          0x0000000000000000        0x0 /usr/local/xenon/xenon/lib/32/libc.a(lib_a-strchr.o)
 .bss           0x0000000000000000        0x0 /usr/local/xenon/xenon/lib/32/libc.a(lib_a-strchr.o)
 .got2          0x0000000000000000        0x0 /usr/local/xenon/xenon/lib/32/libc.a(lib_a-strchr.o)
 .data          0x0000000000000000        0x0 /usr/local/xenon/xenon/lib/32/libc.a(lib_a-strcmp.o)
 .bss           0x0000000000000000        0x0 /usr/local/xenon/xenon/lib/32/libc.a(lib_a-strcmp.o)
 .got2          0x0000000000000000        0x0 /usr/local/xenon/xenon/lib/32/libc.a(lib_a-strcmp.o)
 .data          0x0000000000000000        0x0 /usr/local/xenon/xenon/lib/32/libc.a(lib_a-strcpy.o)
 .bss           0x0000000000000000        0x0 /usr/local/xenon/xenon/lib/32/libc.a(lib_a-strcpy.o)
 .got2          0x0000000000000000        0x0 /usr/local/xenon/xenon/lib/32/libc.a(lib_a-strcpy.o)
 .data          0x0000000000000000        0x0 /usr/local/xenon/xenon/lib/32/libc.a(lib_a-strlcpy.o)
 .bss           0x0000000000000000        0x0 /usr/local/xenon/xenon/lib/32/libc.a(lib_a-strlcpy.o)
 .got2          0x0000000000000000        0x0 /usr/local/xenon/xenon/lib/32/libc.a(lib_a-strlcpy.o)
 .data          0x0000000000000000        0x0 /usr/local/xenon/xenon/lib/32/libc.a(lib_a-strlen.o)
 .bss           0x0000000000000000        0x0 /usr/local/xenon/xenon/lib/32/libc.a(lib_a-strlen.o)
 .got2          0x0000000000000000        0x0 /usr/local/xenon/xenon/lib/32/libc.a(lib_a-strlen.o)
 .data          0x0000000000000000        0x0 /usr/local/xenon/xenon/lib/32/libc.a(lib_a-strncasecmp.o)
 .bss           0x0000000000000000        0x0 /usr/local/xenon/xenon/lib/32/libc.a(lib_a-strncasecmp.o)
 .data          0x0000000000000000        0x0 /usr/local/xenon/xenon/lib/32/libc.a(lib_a-strncmp.o)
 .bss           0x0000000000000000        0x0 /usr/local/xenon/xenon/lib/32/libc.a(lib_a-strncmp.o)
 .got2          0x0000000000000000        0x0 /usr/local/xenon/xenon/lib/32/libc.a(lib_a-strncmp.o)
 .data          0x0000000000000000        0x0 /usr/local/xenon/xenon/lib/32/libc.a(lib_a-strncpy.o)
 .bss           0x0000000000000000        0x0 /usr/local/xenon/xenon/lib/32/libc.a(lib_a-strncpy.o)
 .got2          0x0000000000000000        0x0 /usr/local/xenon/xenon/lib/32/libc.a(lib_a-strncpy.o)
 .data          0x0000000000000000        0x0 /usr/local/xenon/xenon/lib/32/libc.a(lib_a-strrchr.o)
 .bss           0x0000000000000000        0x0 /usr/local/xenon/xenon/lib/32/libc.a(lib_a-strrchr.o)
 .got2          0x0000000000000000        0x0 /usr/local/xenon/xenon/lib/32/libc.a(lib_a-strrchr.o)
 .bss           0x0000000000000000        0x0 /usr/local/xenon/xenon/lib/32/libc.a(lib_a-strtod.o)
 .data          0x0000000000000000        0x0 /usr/local/xenon/xenon/lib/32/libc.a(lib_a-strtok_r.o)
 .bss           0x0000000000000000        0x0 /usr/local/xenon/xenon/lib/32/libc.a(lib_a-strtok_r.o)
 .got2          0x0000000000000000        0x0 /usr/local/xenon/xenon/lib/32/libc.a(lib_a-strtok_r.o)
 .data          0x0000000000000000        0x0 /usr/local/xenon/xenon/lib/32/libc.a(lib_a-strtol.o)
 .bss           0x0000000000000000        0x0 /usr/local/xenon/xenon/lib/32/libc.a(lib_a-strtol.o)
 .data          0x0000000000000000        0x0 /usr/local/xenon/xenon/lib/32/libc.a(lib_a-svfprintf.o)
 .bss           0x0000000000000000        0x0 /usr/local/xenon/xenon/lib/32/libc.a(lib_a-svfprintf.o)
 .data          0x0000000000000000        0x0 /usr/local/xenon/xenon/lib/32/libc.a(lib_a-vfiprintf.o)
 .bss           0x0000000000000000        0x0 /usr/local/xenon/xenon/lib/32/libc.a(lib_a-vfiprintf.o)
 .data          0x0000000000000000        0x0 /usr/local/xenon/xenon/lib/32/libc.a(lib_a-vfprintf.o)
 .bss           0x0000000000000000        0x0 /usr/local/xenon/xenon/lib/32/libc.a(lib_a-vfprintf.o)
 .data          0x0000000000000000        0x0 /usr/local/xenon/xenon/lib/32/libc.a(lib_a-vprintf.o)
 .bss           0x0000000000000000        0x0 /usr/local/xenon/xenon/lib/32/libc.a(lib_a-vprintf.o)
 .text          0x0000000000000000       0xb4 /usr/local/xenon/xenon/lib/32/libc.a(lib_a-vsprintf.o)
 .data          0x0000000000000000        0x0 /usr/local/xenon/xenon/lib/32/libc.a(lib_a-vsprintf.o)
 .bss           0x0000000000000000        0x0 /usr/local/xenon/xenon/lib/32/libc.a(lib_a-vsprintf.o)
 .got2          0x0000000000000000        0x4 /usr/local/xenon/xenon/lib/32/libc.a(lib_a-vsprintf.o)
 .data          0x0000000000000000        0x0 /usr/local/xenon/xenon/lib/32/libc.a(lib_a-wbuf.o)
 .bss           0x0000000000000000        0x0 /usr/local/xenon/xenon/lib/32/libc.a(lib_a-wbuf.o)
 .data          0x0000000000000000        0x0 /usr/local/xenon/xenon/lib/32/libc.a(lib_a-writer.o)
 .bss           0x0000000000000000        0x0 /usr/local/xenon/xenon/lib/32/libc.a(lib_a-writer.o)
 .data          0x0000000000000000        0x0 /usr/local/xenon/xenon/lib/32/libc.a(lib_a-wsetup.o)
 .bss           0x0000000000000000        0x0 /usr/local/xenon/xenon/lib/32/libc.a(lib_a-wsetup.o)
 .text          0x0000000000000000      0x13c /usr/local/xenon/xenon/lib/32/libc.a(lib_a-__atexit.o)
 .data          0x0000000000000000        0x0 /usr/local/xenon/xenon/lib/32/libc.a(lib_a-__atexit.o)
 .bss           0x0000000000000000        0x0 /usr/local/xenon/xenon/lib/32/libc.a(lib_a-__atexit.o)
 .got2          0x0000000000000000        0x4 /usr/local/xenon/xenon/lib/32/libc.a(lib_a-__atexit.o)
 .data          0x0000000000000000        0x0 /usr/local/xenon/xenon/lib/32/libc.a(lib_a-__call_atexit.o)
 .bss           0x0000000000000000        0x0 /usr/local/xenon/xenon/lib/32/libc.a(lib_a-__call_atexit.o)
 .data          0x0000000000000000        0x0 /usr/local/xenon/xenon/lib/32/libc.a(lib_a-closer.o)
 .bss           0x0000000000000000        0x0 /usr/local/xenon/xenon/lib/32/libc.a(lib_a-closer.o)
 .data          0x0000000000000000        0x0 /usr/local/xenon/xenon/lib/32/libc.a(lib_a-dtoa.o)
 .bss           0x0000000000000000        0x0 /usr/local/xenon/xenon/lib/32/libc.a(lib_a-dtoa.o)
 .data          0x0000000000000000        0x0 /usr/local/xenon/xenon/lib/32/libc.a(lib_a-flags.o)
 .bss           0x0000000000000000        0x0 /usr/local/xenon/xenon/lib/32/libc.a(lib_a-flags.o)
 .got2          0x0000000000000000        0x0 /usr/local/xenon/xenon/lib/32/libc.a(lib_a-flags.o)
 .data          0x0000000000000000        0x0 /usr/local/xenon/xenon/lib/32/libc.a(lib_a-gdtoa-gethex.o)
 .bss           0x0000000000000000        0x0 /usr/local/xenon/xenon/lib/32/libc.a(lib_a-gdtoa-gethex.o)
 .data          0x0000000000000000        0x0 /usr/local/xenon/xenon/lib/32/libc.a(lib_a-gdtoa-hexnan.o)
 .bss           0x0000000000000000        0x0 /usr/local/xenon/xenon/lib/32/libc.a(lib_a-gdtoa-hexnan.o)
 .data          0x0000000000000000        0x0 /usr/local/xenon/xenon/lib/32/libc.a(lib_a-isattyr.o)
 .bss           0x0000000000000000        0x0 /usr/local/xenon/xenon/lib/32/libc.a(lib_a-isattyr.o)
 .data          0x0000000000000000        0xc /usr/local/xenon/xenon/lib/32/libc.a(lib_a-locale.o)
 .bss           0x0000000000000000        0x0 /usr/local/xenon/xenon/lib/32/libc.a(lib_a-locale.o)
 .sbss          0x0000000000000000        0xc /usr/local/xenon/xenon/lib/32/libc.a(lib_a-locale.o)
 .sdata         0x0000000000000000        0x4 /usr/local/xenon/xenon/lib/32/libc.a(lib_a-locale.o)
 .data          0x0000000000000000        0x0 /usr/local/xenon/xenon/lib/32/libc.a(lib_a-lseekr.o)
 .bss           0x0000000000000000        0x0 /usr/local/xenon/xenon/lib/32/libc.a(lib_a-lseekr.o)
 .data          0x0000000000000000        0x0 /usr/local/xenon/xenon/lib/32/libc.a(lib_a-mprec.o)
 .bss           0x0000000000000000        0x0 /usr/local/xenon/xenon/lib/32/libc.a(lib_a-mprec.o)
 .data          0x0000000000000000        0x0 /usr/local/xenon/xenon/lib/32/libc.a(lib_a-readr.o)
 .bss           0x0000000000000000        0x0 /usr/local/xenon/xenon/lib/32/libc.a(lib_a-readr.o)
 .data          0x0000000000000000        0x0 /usr/local/xenon/xenon/lib/32/libc.a(lib_a-sf_nan.o)
 .bss           0x0000000000000000        0x0 /usr/local/xenon/xenon/lib/32/libc.a(lib_a-sf_nan.o)
 .data          0x0000000000000000        0x0 /usr/local/xenon/xenon/lib/32/libc.a(lib_a-s_isinfd.o)
 .bss           0x0000000000000000        0x0 /usr/local/xenon/xenon/lib/32/libc.a(lib_a-s_isinfd.o)
 .got2          0x0000000000000000        0x0 /usr/local/xenon/xenon/lib/32/libc.a(lib_a-s_isinfd.o)
 .data          0x0000000000000000        0x0 /usr/local/xenon/xenon/lib/32/libc.a(lib_a-callocr.o)
 .bss           0x0000000000000000        0x0 /usr/local/xenon/xenon/lib/32/libc.a(lib_a-callocr.o)
 .got2          0x0000000000000000        0x0 /usr/local/xenon/xenon/lib/32/libc.a(lib_a-callocr.o)
 .data          0x0000000000000000        0x0 /usr/local/xenon/lib/gcc/xenon/4.6.0/32/libgcc.a(_udivdi3.o)
 .bss           0x0000000000000000        0x0 /usr/local/xenon/lib/gcc/xenon/4.6.0/32/libgcc.a(_udivdi3.o)
 .got2          0x0000000000000000        0x0 /usr/local/xenon/lib/gcc/xenon/4.6.0/32/libgcc.a(_udivdi3.o)
 .data          0x0000000000000000        0x0 /usr/local/xenon/lib/gcc/xenon/4.6.0/32/libgcc.a(_umoddi3.o)
 .bss           0x0000000000000000        0x0 /usr/local/xenon/lib/gcc/xenon/4.6.0/32/libgcc.a(_umoddi3.o)
 .got2          0x0000000000000000        0x0 /usr/local/xenon/lib/gcc/xenon/4.6.0/32/libgcc.a(_umoddi3.o)
 .text          0x0000000000000000       0x8c /usr/local/xenon/lib/gcc/xenon/4.6.0/32/crtend.o
 .data          0x0000000000000000        0x0 /usr/local/xenon/lib/gcc/xenon/4.6.0/32/crtend.o
 .bss           0x0000000000000000        0x0 /usr/local/xenon/lib/gcc/xenon/4.6.0/32/crtend.o
 .got2          0x0000000000000000        0x4 /usr/local/xenon/lib/gcc/xenon/4.6.0/32/crtend.o
 .ctors         0x0000000000000000        0x4 /usr/local/xenon/lib/gcc/xenon/4.6.0/32/crtend.o
 .dtors         0x0000000000000000        0x4 /usr/local/xenon/lib/gcc/xenon/4.6.0/32/crtend.o
 .jcr           0x0000000000000000        0x4 /usr/local/xenon/lib/gcc/xenon/4.6.0/32/crtend.o
 .init          0x0000000000000000        0x4 /usr/local/xenon/lib/gcc/xenon/4.6.0/32/crtend.o
 .text          0x0000000000000000        0x0 /usr/local/xenon/lib/gcc/xenon/4.6.0/../../../../xenon/lib/../lib/crtn.o
 .data          0x0000000000000000        0x0 /usr/local/xenon/lib/gcc/xenon/4.6.0/../../../../xenon/lib/../lib/crtn.o
 .bss           0x0000000000000000        0x0 /usr/local/xenon/lib/gcc/xenon/4.6.0/../../../../xenon/lib/../lib/crtn.o
 .init          0x0000000000000000       0x10 /usr/local/xenon/lib/gcc/xenon/4.6.0/../../../../xenon/lib/../lib/crtn.o
 .fini          0x0000000000000000       0x10 /usr/local/xenon/lib/gcc/xenon/4.6.0/../../../../xenon/lib/../lib/crtn.o

Memory Configuration

Name             Origin             Length             Attributes
*default*        0x0000000000000000 0xffffffffffffffff

Linker script and memory map

LOAD /usr/local/xenon/lib/gcc/xenon/4.6.0/../../../../xenon/lib/../lib/crt1.o
LOAD /usr/local/xenon/lib/gcc/xenon/4.6.0/../../../../xenon/lib/../lib/crti.o
LOAD /usr/local/xenon/lib/gcc/xenon/4.6.0/32/crtbegin.o
LOAD draw_c_p.psu.o
LOAD draw_t_p.psu.o
LOAD draw_v.vsu.o
LOAD font_p.psu.o
LOAD font_v.vsu.o
LOAD Verdana_16.abc.o
LOAD Verdana_16.png.o
LOAD main.o
LOAD Tank.o
LOAD Tools.o
LOAD Console.o
LOAD Draw.o
LOAD Font.o
LOAD stdafx.o
LOAD Utils.o
LOAD zlx.o
LOAD /usr/local/xenon/usr/lib/libxenon.a
LOAD /usr/local/xenon/usr/lib/libpng.a
LOAD /usr/local/xenon/usr/lib/libz.a
LOAD /usr/local/xenon/lib/gcc/xenon/4.6.0/../../../../xenon/lib/../lib/libstdc++.a
LOAD /usr/local/xenon/xenon/lib/32/libm.a
LOAD /usr/local/xenon/lib/gcc/xenon/4.6.0/32/libgcc.a
LOAD /usr/local/xenon/xenon/lib/32/libc.a
LOAD /usr/local/xenon/lib/gcc/xenon/4.6.0/32/libgcc.a
LOAD /usr/local/xenon/lib/gcc/xenon/4.6.0/32/crtend.o
LOAD /usr/local/xenon/lib/gcc/xenon/4.6.0/../../../../xenon/lib/../lib/crtn.o
                0x0000000080000000                . = 0x80000000

.text           0x0000000080000000    0x6e1d8
 *(.except*)
 .except        0x0000000080000000     0x1dd0 /usr/local/xenon/usr/lib/libxenon.a(except.o)
                0x0000000080000000                secondary_lock
                0x0000000080000000                exc_base
                0x0000000080000004                secondary_alive
 *(.pagetable)
 .pagetable     0x0000000080001dd0       0x40 /usr/local/xenon/usr/lib/libxenon.a(vm.o)
                0x0000000080001dd0                pagetable
 *(.text*)
 .text.call_ctors
                0x0000000080001e10       0x48 /usr/local/xenon/lib/gcc/xenon/4.6.0/../../../../xenon/lib/../lib/crt1.o
                0x0000000080001e10                call_ctors
 .text._ZN9MyConsole9RenderAppEv
                0x0000000080001e58      0x12c main.o
                0x0000000080001e58                _ZN9MyConsole9RenderAppEv
 *fill*         0x0000000080001f84        0x4 00
 .text._ZN9MyConsole4InitEv
                0x0000000080001f88      0x1cc main.o
                0x0000000080001f88                _ZN9MyConsole4InitEv
 *fill*         0x0000000080002154        0x4 00
 .text._ZN9MyConsole7WarningEPKc
                0x0000000080002158      0x298 main.o
                0x0000000080002158                _ZN9MyConsole7WarningEPKc
 .text._ZN9MyConsole6UpdateEv
                0x00000000800023f0      0x398 main.o
                0x00000000800023f0                _ZN9MyConsole6UpdateEv
 .text._ZN9MyConsole5AlertEPKc
                0x0000000080002788      0x22c main.o
                0x0000000080002788                _ZN9MyConsole5AlertEPKc
 *fill*         0x00000000800029b4        0x4 00
 .text._ZN9MyConsole3RunEv
                0x00000000800029b8      0x108 main.o
                0x00000000800029b8                _ZN9MyConsole3RunEv
 .text.startup.main
                0x0000000080002ac0       0x2c main.o
                0x0000000080002ac0                main
 *fill*         0x0000000080002aec        0x4 00
 .text._ZN7cBullet9CollisionEff
                0x0000000080002af0      0x148 Tank.o
                0x0000000080002af0                _ZN7cBullet9CollisionEff
 .text._ZN5cTank9CollisionEPS_
                0x0000000080002c38      0x23c Tank.o
                0x0000000080002c38                _ZN5cTank9CollisionEPS_
 *fill*         0x0000000080002e74        0x4 00
 .text._ZN5cTank11checkBoundsEv
                0x0000000080002e78       0x54 Tank.o
                0x0000000080002e78                _ZN5cTank11checkBoundsEv
 *fill*         0x0000000080002ecc        0x4 00
 .text._ZN5cTank8FinalizeEv
                0x0000000080002ed0       0x54 Tank.o
                0x0000000080002ed0                _ZN5cTank8FinalizeEv
 *fill*         0x0000000080002f24        0x4 00
 .text._ZN7cBullet11checkBoundsEv
                0x0000000080002f28       0x58 Tank.o
                0x0000000080002f28                _ZN7cBullet11checkBoundsEv
 .text._ZN5cTank8getImageEv
                0x0000000080002f80      0x104 Tank.o
                0x0000000080002f80                _ZN5cTank8getImageEv
 *fill*         0x0000000080003084        0x4 00
 .text._ZN5cTank4moveEv
                0x0000000080003088      0x148 Tank.o
                0x0000000080003088                _ZN5cTank4moveEv
 .text._ZN5cTank5spawnEffi
                0x00000000800031d0       0x80 Tank.o
                0x00000000800031d0                _ZN5cTank5spawnEffi
 .text._ZN5cTank10setTextureEP12XenosSurface
                0x0000000080003250       0x14 Tank.o
                0x0000000080003250                _ZN5cTank10setTextureEP12XenosSurface
 *fill*         0x0000000080003264        0x4 00
 .text._ZN7cBullet4moveEv
                0x0000000080003268       0x98 Tank.o
                0x0000000080003268                _ZN7cBullet4moveEv
 .text._ZN5cTank6updateEv
                0x0000000080003300       0xa0 Tank.o
                0x0000000080003300                _ZN5cTank6updateEv
 .text._ZN7cBullet8getImageEv
                0x00000000800033a0       0xbc Tank.o
                0x00000000800033a0                _ZN7cBullet8getImageEv
 *fill*         0x000000008000345c        0x4 00
 .text._ZN7cBullet5spawnEffi
                0x0000000080003460       0x94 Tank.o
                0x0000000080003460                _ZN7cBullet5spawnEffi
 *fill*         0x00000000800034f4        0x4 00
 .text._ZN5cTank5shootEv
                0x00000000800034f8       0xa0 Tank.o
                0x00000000800034f8                _ZN5cTank5shootEv
 .text._ZN7cBullet4drawEv
                0x0000000080003598       0xd8 Tank.o
                0x0000000080003598                _ZN7cBullet4drawEv
 .text._ZN5cTank4drawEv
                0x0000000080003670      0x25c Tank.o
                0x0000000080003670                _ZN5cTank4drawEv
 *fill*         0x00000000800038cc        0x4 00
 .text._ZN3ZLX7Console6CreateEPKcjj
                0x00000000800038d0      0x350 Console.o
                0x00000000800038d0                _ZN3ZLX7Console6CreateEPKcjj
 .text._ZN3ZLX7Console5BeginEv
                0x0000000080003c20       0x3c Console.o
                0x0000000080003c20                _ZN3ZLX7Console5BeginEv
 *fill*         0x0000000080003c5c        0x4 00
 .text._ZN3ZLX7Console3EndEv
                0x0000000080003c60       0x38 Console.o
                0x0000000080003c60                _ZN3ZLX7Console3EndEv
 .text._ZN3ZLX7Console6RenderEv
                0x0000000080003c98       0xa8 Console.o
                0x0000000080003c98                _ZN3ZLX7Console6RenderEv
 .text._ZN3ZLXL12CreateShaderEv
                0x0000000080003d40       0xdc Draw.o
 *fill*         0x0000000080003e1c        0x4 00
 .text._ZN3ZLX4Draw20DrawClipTexturedRectEffffffffP12XenosSurface
                0x0000000080003e20      0x1fc Draw.o
                0x0000000080003e20                _ZN3ZLX4Draw20DrawClipTexturedRectEffffffffP12XenosSurface
 *fill*         0x000000008000401c        0x4 00
 .text._ZN3ZLX4Draw15DrawColoredRectEffffj
                0x0000000080004020      0x194 Draw.o
                0x0000000080004020                _ZN3ZLX4Draw15DrawColoredRectEffffj
 *fill*         0x00000000800041b4        0x4 00
 .text._ZN3ZLX4Font16CreateFontShaderEv
                0x00000000800041b8       0xc8 Font.o
                0x00000000800041b8                _ZN3ZLX4Font16CreateFontShaderEv
 .text._ZN3ZLX4Font12GetXSafeAreaEv
                0x0000000080004280       0x64 Font.o
                0x0000000080004280                _ZN3ZLX4Font12GetXSafeAreaEv
 *fill*         0x00000000800042e4        0x4 00
 .text._ZN3ZLX4Font12GetYSafeAreaEv
                0x00000000800042e8       0x64 Font.o
                0x00000000800042e8                _ZN3ZLX4Font12GetYSafeAreaEv
 *fill*         0x000000008000434c        0x4 00
 .text._ZN3ZLX4Font6CreateEP12XenosSurfacePKv
                0x0000000080004350      0x118 Font.o
                0x0000000080004350                _ZN3ZLX4Font6CreateEP12XenosSurfacePKv
 .text._ZN3ZLX4Font8DrawTextEPKcjff
                0x0000000080004468      0x5a0 Font.o
                0x0000000080004468                _ZN3ZLX4Font8DrawTextEPKcjff
 .text._ZN3ZLX4Font9DrawTextFEPKcjff
                0x0000000080004a08      0x124 Font.o
                0x0000000080004a08                _ZN3ZLX4Font9DrawTextFEPKcjff
 *fill*         0x0000000080004b2c        0x4 00
 .text._ZN3ZLX4Font3EndEv
                0x0000000080004b30        0x4 Font.o
                0x0000000080004b30                _ZN3ZLX4Font3EndEv
 *fill*         0x0000000080004b34        0x4 00
 .text._ZN3ZLX4Font5BeginEv
                0x0000000080004b38      0x1c4 Font.o
                0x0000000080004b38                _ZN3ZLX4Font5BeginEv
 *fill*         0x0000000080004cfc        0x4 00
 .text._ZNK3ZLX4Font13GetTextExtentEPKcPfS3_j
                0x0000000080004d00       0xf8 Font.o
                0x0000000080004d00                _ZNK3ZLX4Font13GetTextExtentEPKcPfS3_j
 .text._ZN3ZLXL12png_mem_readEP14png_struct_defPhj
                0x0000000080004df8       0x68 Utils.o
 .text._ZN3ZLX17loadPNGFromMemoryEPh
                0x0000000080004e60      0x210 Utils.o
                0x0000000080004e60                _ZN3ZLX17loadPNGFromMemoryEPh
 .text._ZN3ZLX14GetScreenWidthEv
                0x0000000080005070        0x8 Utils.o
                0x0000000080005070                _ZN3ZLX14GetScreenWidthEv
 .text._ZN3ZLX15GetScreenHeightEv
                0x0000000080005078        0x8 Utils.o
                0x0000000080005078                _ZN3ZLX15GetScreenHeightEv
 .text._ZN3ZLX8LoadFileEPKcPPvPj
                0x0000000080005080      0x14c Utils.o
                0x0000000080005080                _ZN3ZLX8LoadFileEPKcPPvPj
 *fill*         0x00000000800051cc        0x4 00
 .text._ZN3ZLX19LoadTextureFromFileEP11XenosDevicePcPP12XenosSurface
                0x00000000800051d0       0xa8 Utils.o
                0x00000000800051d0                _ZN3ZLX19LoadTextureFromFileEP11XenosDevicePcPP12XenosSurface
 .text._ZN3ZLX15InitialiseVideoEv
                0x0000000080005278       0x90 Utils.o
                0x0000000080005278                _ZN3ZLX15InitialiseVideoEv
 *fill*         0x0000000080005308       0xf8 00
 .text          0x0000000080005400      0x2f0 /usr/local/xenon/usr/lib/libxenon.a(startup_from_xell.o)
                0x0000000080005400                _start
                0x00000000800055d4                wait
                0x0000000080005648                return_to_xell
 .text.xenon_ata_wait_ready
                0x00000000800056f0       0x1c /usr/local/xenon/usr/lib/libxenon.a(ata.o)
 .text.xenon_ata_pio_write
                0x000000008000570c       0x64 /usr/local/xenon/usr/lib/libxenon.a(ata.o)
 .text.xenon_ata_setlba
                0x0000000080005770       0x34 /usr/local/xenon/usr/lib/libxenon.a(ata.o)
 .text.xenon_atapi_packet
                0x00000000800057a4       0x84 /usr/local/xenon/usr/lib/libxenon.a(ata.o)
 .text.xenon_ata_setaddress
                0x0000000080005828      0x15c /usr/local/xenon/usr/lib/libxenon.a(ata.o)
 .text.xenon_ata_pio_read
                0x0000000080005984       0xcc /usr/local/xenon/usr/lib/libxenon.a(ata.o)
 .text.xenon_ata_identify
                0x0000000080005a50      0x2a8 /usr/local/xenon/usr/lib/libxenon.a(ata.o)
 .text.xenon_ata_dma_read
                0x0000000080005cf8      0x1a4 /usr/local/xenon/usr/lib/libxenon.a(ata.o)
 .text.xenon_ata_write_sectors
                0x0000000080005e9c       0x98 /usr/local/xenon/usr/lib/libxenon.a(ata.o)
 .text.xenon_ata_read_sectors
                0x0000000080005f34       0x7c /usr/local/xenon/usr/lib/libxenon.a(ata.o)
 .text.xenon_atapi_request_sense
                0x0000000080005fb0       0xa4 /usr/local/xenon/usr/lib/libxenon.a(ata.o)
                0x0000000080005fb0                xenon_atapi_request_sense
 .text.xenon_atapi_read_sectors
                0x0000000080006054       0xe0 /usr/local/xenon/usr/lib/libxenon.a(ata.o)
 .text.xenon_ata_init1
                0x0000000080006134      0x150 /usr/local/xenon/usr/lib/libxenon.a(ata.o)
                0x0000000080006134                xenon_ata_init1
 .text.xenon_ata_init
                0x0000000080006284       0xbc /usr/local/xenon/usr/lib/libxenon.a(ata.o)
                0x0000000080006284                xenon_ata_init
 .text.xenon_atapi_init
                0x0000000080006340       0xbc /usr/local/xenon/usr/lib/libxenon.a(ata.o)
                0x0000000080006340                xenon_atapi_init
 .text.get_controller_data
                0x00000000800063fc       0x60 /usr/local/xenon/usr/lib/libxenon.a(input.o)
                0x00000000800063fc                get_controller_data
 .text.set_controller_data
                0x000000008000645c       0x54 /usr/local/xenon/usr/lib/libxenon.a(input.o)
                0x000000008000645c                set_controller_data
 .text.vfs_console_isatty
                0x00000000800064b0        0x8 /usr/local/xenon/usr/lib/libxenon.a(newlib.o)
                0x00000000800064b0                vfs_console_isatty
 .text.is_valid_and_open_fd
                0x00000000800064b8       0x34 /usr/local/xenon/usr/lib/libxenon.a(newlib.o)
 .text.vfs_console_open
                0x00000000800064ec       0x50 /usr/local/xenon/usr/lib/libxenon.a(newlib.o)
                0x00000000800064ec                vfs_console_open
 .text.vfs_console_write
                0x000000008000653c       0x64 /usr/local/xenon/usr/lib/libxenon.a(newlib.o)
                0x000000008000653c                vfs_console_write
 .text.mount    0x00000000800065a0       0xa8 /usr/local/xenon/usr/lib/libxenon.a(newlib.o)
                0x00000000800065a0                mount
 .text.sbrk     0x0000000080006648       0x30 /usr/local/xenon/usr/lib/libxenon.a(newlib.o)
                0x0000000080006648                sbrk
 .text.write    0x0000000080006678       0x84 /usr/local/xenon/usr/lib/libxenon.a(newlib.o)
                0x0000000080006678                write
 .text.close    0x00000000800066fc       0x68 /usr/local/xenon/usr/lib/libxenon.a(newlib.o)
                0x00000000800066fc                close
 .text.fstat    0x0000000080006764       0x70 /usr/local/xenon/usr/lib/libxenon.a(newlib.o)
                0x0000000080006764                fstat
 .text.isatty   0x00000000800067d4       0x60 /usr/local/xenon/usr/lib/libxenon.a(newlib.o)
                0x00000000800067d4                isatty
 .text.lseek    0x0000000080006834       0x70 /usr/local/xenon/usr/lib/libxenon.a(newlib.o)
                0x0000000080006834                lseek
 .text.read     0x00000000800068a4       0x70 /usr/local/xenon/usr/lib/libxenon.a(newlib.o)
                0x00000000800068a4                read
 .text.open     0x0000000080006914      0x100 /usr/local/xenon/usr/lib/libxenon.a(newlib.o)
                0x0000000080006914                open
 .text._exit    0x0000000080006a14       0x24 /usr/local/xenon/usr/lib/libxenon.a(newlib.o)
                0x0000000080006a14                _exit
 .text.getpid   0x0000000080006a38        0x8 /usr/local/xenon/usr/lib/libxenon.a(newlib.o)
                0x0000000080006a38                getpid
 .text.kill     0x0000000080006a40        0x8 /usr/local/xenon/usr/lib/libxenon.a(newlib.o)
                0x0000000080006a40                kill
 .text          0x0000000080006a48       0x84 /usr/local/xenon/usr/lib/libxenon.a(atomic.o)
                0x0000000080006a48                atomic_inc
                0x0000000080006a5c                atomic_dec
                0x0000000080006a70                atomic_clearset
                0x0000000080006a88                lock
                0x0000000080006abc                unlock
 .text          0x0000000080006acc       0xa8 /usr/local/xenon/usr/lib/libxenon.a(cache.o)
                0x0000000080006acc                memdcbt
                0x0000000080006af4                memdcbst
                0x0000000080006b1c                memdcbf
                0x0000000080006b44                memicbi
 .text.tdelay   0x0000000080006b74       0x48 /usr/local/xenon/usr/lib/libxenon.a(time.o)
 .text.time     0x0000000080006bbc        0xc /usr/local/xenon/usr/lib/libxenon.a(time.o)
                0x0000000080006bbc                time
 .text.udelay   0x0000000080006bc8       0x10 /usr/local/xenon/usr/lib/libxenon.a(time.o)
                0x0000000080006bc8                udelay
 .text.mdelay   0x0000000080006bd8       0x18 /usr/local/xenon/usr/lib/libxenon.a(time.o)
                0x0000000080006bd8                mdelay
 .text.delay    0x0000000080006bf0       0x18 /usr/local/xenon/usr/lib/libxenon.a(time.o)
                0x0000000080006bf0                delay
 .text.usb_init_one_ohci
                0x0000000080006c08       0xcc /usr/local/xenon/usr/lib/libxenon.a(usbmain.o)
 .text.usb_init
                0x0000000080006cd4      0x104 /usr/local/xenon/usr/lib/libxenon.a(usbmain.o)
                0x0000000080006cd4                usb_init
 .text.usb_do_poll
                0x0000000080006dd8       0x90 /usr/local/xenon/usr/lib/libxenon.a(usbmain.o)
                0x0000000080006dd8                usb_do_poll
 .text.qtd_fill
                0x0000000080006e68       0xa4 /usr/local/xenon/usr/lib/libxenon.a(tinyehci.o)
 .text.ehci_qtd_alloc
                0x0000000080006f0c       0x78 /usr/local/xenon/usr/lib/libxenon.a(tinyehci.o)
 .text.handshake.isra.5
                0x0000000080006f84      0x178 /usr/local/xenon/usr/lib/libxenon.a(tinyehci.o)
 .text.ehci_mem_init
                0x00000000800070fc       0xf8 /usr/local/xenon/usr/lib/libxenon.a(tinyehci.o)
                0x00000000800070fc                ehci_mem_init
 .text.qh_urb_transaction
                0x00000000800071f4      0x1c0 /usr/local/xenon/usr/lib/libxenon.a(tinyehci.o)
                0x00000000800071f4                qh_urb_transaction
 .text.ehci_do_urb
                0x00000000800073b4      0x3c4 /usr/local/xenon/usr/lib/libxenon.a(tinyehci.o)
                0x00000000800073b4                ehci_do_urb
 .text.ehci_control_message
                0x0000000080007778       0x84 /usr/local/xenon/usr/lib/libxenon.a(tinyehci.o)
                0x0000000080007778                ehci_control_message
 .text.ehci_bulk_message
                0x00000000800077fc       0x48 /usr/local/xenon/usr/lib/libxenon.a(tinyehci.o)
                0x00000000800077fc                ehci_bulk_message
 .text.__send_cbw
                0x0000000080007844      0x118 /usr/local/xenon/usr/lib/libxenon.a(tinyehci.o)
 .text.ehci_reset_port_old
                0x000000008000795c      0x1a4 /usr/local/xenon/usr/lib/libxenon.a(tinyehci.o)
                0x000000008000795c                ehci_reset_port_old
 .text.ehci_adquire_port
                0x0000000080007b00       0x88 /usr/local/xenon/usr/lib/libxenon.a(tinyehci.o)
                0x0000000080007b00                ehci_adquire_port
 .text.ehci_reset_usb_port
                0x0000000080007b88      0x174 /usr/local/xenon/usr/lib/libxenon.a(tinyehci.o)
                0x0000000080007b88                ehci_reset_usb_port
 .text.ehci_reset_port2
                0x0000000080007cfc       0x6c /usr/local/xenon/usr/lib/libxenon.a(tinyehci.o)
                0x0000000080007cfc                ehci_reset_port2
 .text.USB_FreeDescriptors
                0x0000000080007d68       0xa8 /usr/local/xenon/usr/lib/libxenon.a(tinyehci.o)
                0x0000000080007d68                USB_FreeDescriptors
 .text.USB_GetDescriptors
                0x0000000080007e10      0x340 /usr/local/xenon/usr/lib/libxenon.a(tinyehci.o)
                0x0000000080007e10                USB_GetDescriptors
 .text.USB_GetConfiguration
                0x0000000080008150       0x7c /usr/local/xenon/usr/lib/libxenon.a(tinyehci.o)
                0x0000000080008150                USB_GetConfiguration
 .text.USB_SetConfiguration
                0x00000000800081cc       0x1c /usr/local/xenon/usr/lib/libxenon.a(tinyehci.o)
                0x00000000800081cc                USB_SetConfiguration
 .text.USB_SetAlternativeInterface
                0x00000000800081e8       0x28 /usr/local/xenon/usr/lib/libxenon.a(tinyehci.o)
                0x00000000800081e8                USB_SetAlternativeInterface
 .text.USB_ClearHalt
                0x0000000080008210       0x1c /usr/local/xenon/usr/lib/libxenon.a(tinyehci.o)
                0x0000000080008210                USB_ClearHalt
 .text.ehci_init_port
                0x000000008000822c      0x14c /usr/local/xenon/usr/lib/libxenon.a(tinyehci.o)
                0x000000008000822c                ehci_init_port
 .text.ehci_reset_port
                0x0000000080008378       0x50 /usr/local/xenon/usr/lib/libxenon.a(tinyehci.o)
                0x0000000080008378                ehci_reset_port
 .text.ehci_discover
                0x00000000800083c8       0x54 /usr/local/xenon/usr/lib/libxenon.a(tinyehci.o)
                0x00000000800083c8                ehci_discover
 .text.EHCI_do_one
                0x000000008000841c      0x144 /usr/local/xenon/usr/lib/libxenon.a(tinyehci.o)
 .text.my_memcmp
                0x0000000080008560       0x44 /usr/local/xenon/usr/lib/libxenon.a(tinyehci.o)
                0x0000000080008560                my_memcmp
 .text.USBStorage_Close
                0x00000000800085a4       0x44 /usr/local/xenon/usr/lib/libxenon.a(tinyehci.o)
                0x00000000800085a4                USBStorage_Close
 .text.USBStorage_ReadCapacity
                0x00000000800085e8       0xb8 /usr/local/xenon/usr/lib/libxenon.a(tinyehci.o)
                0x00000000800085e8                USBStorage_ReadCapacity
 .text.USBStorage_MountLUN
                0x00000000800086a0      0x1f4 /usr/local/xenon/usr/lib/libxenon.a(tinyehci.o)
                0x00000000800086a0                USBStorage_MountLUN
 .text.__usbstorage_reset.isra.9
                0x0000000080008894      0x1a8 /usr/local/xenon/usr/lib/libxenon.a(tinyehci.o)
 .text.USBStorage_Open
                0x0000000080008a3c      0x3b8 /usr/local/xenon/usr/lib/libxenon.a(tinyehci.o)
                0x0000000080008a3c                USBStorage_Open
 .text.__cycle.constprop.11
                0x0000000080008df4      0x268 /usr/local/xenon/usr/lib/libxenon.a(tinyehci.o)
 .text.USBStorage_Inquiry
                0x000000008000905c       0xa0 /usr/local/xenon/usr/lib/libxenon.a(tinyehci.o)
                0x000000008000905c                USBStorage_Inquiry
 .text.USBStorage_Read
                0x00000000800090fc      0x158 /usr/local/xenon/usr/lib/libxenon.a(tinyehci.o)
                0x00000000800090fc                USBStorage_Read
 .text.USBStorage_Write
                0x0000000080009254      0x158 /usr/local/xenon/usr/lib/libxenon.a(tinyehci.o)
                0x0000000080009254                USBStorage_Write
 .text.USBStorage_Try_Device
                0x00000000800093ac      0x19c /usr/local/xenon/usr/lib/libxenon.a(tinyehci.o)
                0x00000000800093ac                USBStorage_Try_Device
 .text.USBStorage_Init
                0x0000000080009548      0x1a4 /usr/local/xenon/usr/lib/libxenon.a(tinyehci.o)
                0x0000000080009548                USBStorage_Init
 .text.unplug_procedure
                0x00000000800096ec       0xd4 /usr/local/xenon/usr/lib/libxenon.a(tinyehci.o)
                0x00000000800096ec                unplug_procedure
 .text.USBStorage_Read_Sectors
                0x00000000800097c0      0x108 /usr/local/xenon/usr/lib/libxenon.a(tinyehci.o)
                0x00000000800097c0                USBStorage_Read_Sectors
 .text.usb2mass_read
                0x00000000800098c8       0x40 /usr/local/xenon/usr/lib/libxenon.a(tinyehci.o)
                0x00000000800098c8                usb2mass_read
 .text.USBStorage_Write_Sectors
                0x0000000080009908      0x108 /usr/local/xenon/usr/lib/libxenon.a(tinyehci.o)
                0x0000000080009908                USBStorage_Write_Sectors
 .text.usb2mass_write
                0x0000000080009a10       0x40 /usr/local/xenon/usr/lib/libxenon.a(tinyehci.o)
                0x0000000080009a10                usb2mass_write
 .text.EHCI_Init
                0x0000000080009a50       0x50 /usr/local/xenon/usr/lib/libxenon.a(tinyehci.o)
                0x0000000080009a50                EHCI_Init
 .text.xenon_smc_send_message
                0x0000000080009aa0       0x98 /usr/local/xenon/usr/lib/libxenon.a(xenon_smc.o)
                0x0000000080009aa0                xenon_smc_send_message
 .text.xenon_smc_receive_message
                0x0000000080009b38       0x80 /usr/local/xenon/usr/lib/libxenon.a(xenon_smc.o)
                0x0000000080009b38                xenon_smc_receive_message
 .text.xenon_smc_handle_bulk
                0x0000000080009bb8       0x98 /usr/local/xenon/usr/lib/libxenon.a(xenon_smc.o)
                0x0000000080009bb8                xenon_smc_handle_bulk
 .text.xenon_smc_receive_response
                0x0000000080009c50       0x48 /usr/local/xenon/usr/lib/libxenon.a(xenon_smc.o)
                0x0000000080009c50                xenon_smc_receive_response
 .text.xenon_smc_ana_write
                0x0000000080009c98       0x9c /usr/local/xenon/usr/lib/libxenon.a(xenon_smc.o)
                0x0000000080009c98                xenon_smc_ana_write
 .text.xenon_smc_ana_read
                0x0000000080009d34       0xc0 /usr/local/xenon/usr/lib/libxenon.a(xenon_smc.o)
                0x0000000080009d34                xenon_smc_ana_read
 .text.xenon_smc_i2c_write
                0x0000000080009df4       0x9c /usr/local/xenon/usr/lib/libxenon.a(xenon_smc.o)
                0x0000000080009df4                xenon_smc_i2c_write
 .text.xenon_smc_start_bootanim
                0x0000000080009e90       0x48 /usr/local/xenon/usr/lib/libxenon.a(xenon_smc.o)
                0x0000000080009e90                xenon_smc_start_bootanim
 .text.xenon_smc_read_avpack
                0x0000000080009ed8       0x48 /usr/local/xenon/usr/lib/libxenon.a(xenon_smc.o)
                0x0000000080009ed8                xenon_smc_read_avpack
 .text.putch    0x0000000080009f20       0x58 /usr/local/xenon/usr/lib/libxenon.a(xenon_uart.o)
                0x0000000080009f20                putch
 .text.determine_broken
                0x0000000080009f78       0x80 /usr/local/xenon/usr/lib/libxenon.a(edram.o)
 .text.edram_write
                0x0000000080009ff8       0xa4 /usr/local/xenon/usr/lib/libxenon.a(edram.o)
 .text.edram_read
                0x000000008000a09c       0x90 /usr/local/xenon/usr/lib/libxenon.a(edram.o)
 .text.edram_rmw
                0x000000008000a12c       0x5c /usr/local/xenon/usr/lib/libxenon.a(edram.o)
 .text.edram_p3
                0x000000008000a188       0xa8 /usr/local/xenon/usr/lib/libxenon.a(edram.o)
                0x000000008000a188                edram_p3
 .text.edram_p4
                0x000000008000a230       0x94 /usr/local/xenon/usr/lib/libxenon.a(edram.o)
                0x000000008000a230                edram_p4
 .text.edram_p2
                0x000000008000a2c4      0xc54 /usr/local/xenon/usr/lib/libxenon.a(edram.o)
                0x000000008000a2c4                edram_p2
 .text.edram_pc
                0x000000008000af18       0xc4 /usr/local/xenon/usr/lib/libxenon.a(edram.o)
                0x000000008000af18                edram_pc
 .text.edram_compare_crc
                0x000000008000afdc      0x124 /usr/local/xenon/usr/lib/libxenon.a(edram.o)
                0x000000008000afdc                edram_compare_crc
 .text.edram_init_state1
                0x000000008000b100      0x1b0 /usr/local/xenon/usr/lib/libxenon.a(edram.o)
                0x000000008000b100                edram_init_state1
 .text.edram_72c
                0x000000008000b2b0      0x920 /usr/local/xenon/usr/lib/libxenon.a(edram.o)
                0x000000008000b2b0                edram_72c
 .text.edram_974
                0x000000008000bbd0      0x1cc /usr/local/xenon/usr/lib/libxenon.a(edram.o)
                0x000000008000bbd0                edram_974
 .text.edram_9e4
                0x000000008000bd9c      0x81c /usr/local/xenon/usr/lib/libxenon.a(edram.o)
                0x000000008000bd9c                edram_9e4
 .text.edram_4c
                0x000000008000c5b8     0x16b8 /usr/local/xenon/usr/lib/libxenon.a(edram.o)
                0x000000008000c5b8                edram_4c
 .text.edram_init
                0x000000008000dc70      0x5d0 /usr/local/xenon/usr/lib/libxenon.a(edram.o)
                0x000000008000dc70                edram_init
 .text.Xe_pWriteReg
                0x000000008000e240       0x2c /usr/local/xenon/usr/lib/libxenon.a(xe.o)
 .text.Xe_pSyncToDevice
                0x000000008000e26c       0x28 /usr/local/xenon/usr/lib/libxenon.a(xe.o)
                0x000000008000e26c                Xe_pSyncToDevice
 .text.Xe_pSyncFromDevice
                0x000000008000e294       0x28 /usr/local/xenon/usr/lib/libxenon.a(xe.o)
                0x000000008000e294                Xe_pSyncFromDevice
 .text.Xe_pInvalidateGpuCache_Primary
                0x000000008000e2bc      0x1c4 /usr/local/xenon/usr/lib/libxenon.a(xe.o)
                0x000000008000e2bc                Xe_pInvalidateGpuCache_Primary
 .text.Xe_pRBCommitPrimary
                0x000000008000e480       0x70 /usr/local/xenon/usr/lib/libxenon.a(xe.o)
                0x000000008000e480                Xe_pRBCommitPrimary
 .text.Xe_pRBKickSegment
                0x000000008000e4f0       0xd0 /usr/local/xenon/usr/lib/libxenon.a(xe.o)
                0x000000008000e4f0                Xe_pRBKickSegment
 .text.Xe_pSetSurfaceClip
                0x000000008000e5c0       0x60 /usr/local/xenon/usr/lib/libxenon.a(xe.o)
                0x000000008000e5c0                Xe_pSetSurfaceClip
 .text.Xe_pDrawNonIndexed
                0x000000008000e620       0x4c /usr/local/xenon/usr/lib/libxenon.a(xe.o)
                0x000000008000e620                Xe_pDrawNonIndexed
 .text.Xe_pSetIndexOffset
                0x000000008000e66c       0x2c /usr/local/xenon/usr/lib/libxenon.a(xe.o)
                0x000000008000e66c                Xe_pSetIndexOffset
 .text.Xe_pResetRingbuffer
                0x000000008000e698       0x2c /usr/local/xenon/usr/lib/libxenon.a(xe.o)
                0x000000008000e698                Xe_pResetRingbuffer
 .text.Xe_pSetupRingbuffer
                0x000000008000e6c4       0x44 /usr/local/xenon/usr/lib/libxenon.a(xe.o)
                0x000000008000e6c4                Xe_pSetupRingbuffer
 .text.Xe_pEnableWriteback
                0x000000008000e708       0x30 /usr/local/xenon/usr/lib/libxenon.a(xe.o)
                0x000000008000e708                Xe_pEnableWriteback
 .text.Xe_pGInit0
                0x000000008000e738      0x454 /usr/local/xenon/usr/lib/libxenon.a(xe.o)
                0x000000008000e738                Xe_pGInit0
 .text.Xe_pGInit1
                0x000000008000eb8c       0xc4 /usr/local/xenon/usr/lib/libxenon.a(xe.o)
                0x000000008000eb8c                Xe_pGInit1
 .text.Xe_pGInit2
                0x000000008000ec50       0x50 /usr/local/xenon/usr/lib/libxenon.a(xe.o)
                0x000000008000ec50                Xe_pGInit2
 .text.Xe_pGInit3
                0x000000008000eca0       0x50 /usr/local/xenon/usr/lib/libxenon.a(xe.o)
                0x000000008000eca0                Xe_pGInit3
 .text.Xe_pGInit4
                0x000000008000ecf0       0x88 /usr/local/xenon/usr/lib/libxenon.a(xe.o)
                0x000000008000ecf0                Xe_pGInit4
 .text.Xe_pGInit5
                0x000000008000ed78      0x12c /usr/local/xenon/usr/lib/libxenon.a(xe.o)
                0x000000008000ed78                Xe_pGInit5
 .text.Xe_pGInit6
                0x000000008000eea4       0xc8 /usr/local/xenon/usr/lib/libxenon.a(xe.o)
                0x000000008000eea4                Xe_pGInit6
 .text.Xe_pGInit7
                0x000000008000ef6c       0x50 /usr/local/xenon/usr/lib/libxenon.a(xe.o)
                0x000000008000ef6c                Xe_pGInit7
 .text.Xe_pGInit8
                0x000000008000efbc       0x1c /usr/local/xenon/usr/lib/libxenon.a(xe.o)
                0x000000008000efbc                Xe_pGInit8
 .text.Xe_pGInit9
                0x000000008000efd8       0xc8 /usr/local/xenon/usr/lib/libxenon.a(xe.o)
                0x000000008000efd8                Xe_pGInit9
 .text.Xe_pGInit10
                0x000000008000f0a0       0xa8 /usr/local/xenon/usr/lib/libxenon.a(xe.o)
                0x000000008000f0a0                Xe_pGInit10
 .text.Xe_pGInit
                0x000000008000f148      0x16c /usr/local/xenon/usr/lib/libxenon.a(xe.o)
                0x000000008000f148                Xe_pGInit
 .text.Xe_DirtyAluConstant
                0x000000008000f2b4       0x58 /usr/local/xenon/usr/lib/libxenon.a(xe.o)
                0x000000008000f2b4                Xe_DirtyAluConstant
 .text.Xe_DirtyFetch
                0x000000008000f30c       0x60 /usr/local/xenon/usr/lib/libxenon.a(xe.o)
                0x000000008000f30c                Xe_DirtyFetch
 .text.Xe_pUploadShaderConstants
                0x000000008000f36c       0xe4 /usr/local/xenon/usr/lib/libxenon.a(xe.o)
                0x000000008000f36c                Xe_pUploadShaderConstants
 .text.Xe_pInvalidateGpuCache
                0x000000008000f450       0xbc /usr/local/xenon/usr/lib/libxenon.a(xe.o)
                0x000000008000f450                Xe_pInvalidateGpuCache
 .text.Xe_pInvalidateGpuCacheAll
                0x000000008000f50c       0xc0 /usr/local/xenon/usr/lib/libxenon.a(xe.o)
                0x000000008000f50c                Xe_pInvalidateGpuCacheAll
 .text.Xe_SetRenderTarget
                0x000000008000f5cc       0x5c /usr/local/xenon/usr/lib/libxenon.a(xe.o)
                0x000000008000f5cc                Xe_SetRenderTarget
 .text.Xe_pSetEDRAMLayout
                0x000000008000f628       0x78 /usr/local/xenon/usr/lib/libxenon.a(xe.o)
                0x000000008000f628                Xe_pSetEDRAMLayout
 .text.TEXTURE_FETCH
                0x000000008000f6a0      0x104 /usr/local/xenon/usr/lib/libxenon.a(xe.o)
                0x000000008000f6a0                TEXTURE_FETCH
 .text.Xe_pLoadShader
                0x000000008000f7a4       0x40 /usr/local/xenon/usr/lib/libxenon.a(xe.o)
                0x000000008000f7a4                Xe_pLoadShader
 .text.Xe_pAlign
                0x000000008000f7e4       0x30 /usr/local/xenon/usr/lib/libxenon.a(xe.o)
                0x000000008000f7e4                Xe_pAlign
 .text.Xe_pBlockUntilIdle
                0x000000008000f814        0xc /usr/local/xenon/usr/lib/libxenon.a(xe.o)
                0x000000008000f814                Xe_pBlockUntilIdle
 .text.Xe_pStuff
                0x000000008000f820       0x88 /usr/local/xenon/usr/lib/libxenon.a(xe.o)
                0x000000008000f820                Xe_pStuff
 .text.Xe_Fatal
                0x000000008000f8a8       0x94 /usr/local/xenon/usr/lib/libxenon.a(xe.o)
                0x000000008000f8a8                Xe_Fatal
 .text.Xe_pLock
                0x000000008000f93c       0x88 /usr/local/xenon/usr/lib/libxenon.a(xe.o)
                0x000000008000f93c                Xe_pLock
 .text.Xe_pUnlock
                0x000000008000f9c4       0x74 /usr/local/xenon/usr/lib/libxenon.a(xe.o)
                0x000000008000f9c4                Xe_pUnlock
 .text.Xe_pVBFNrComponents
                0x000000008000fa38       0x6c /usr/local/xenon/usr/lib/libxenon.a(xe.o)
                0x000000008000fa38                Xe_pVBFNrComponents
 .text.Xe_VBFCalcSize
                0x000000008000faa4       0x78 /usr/local/xenon/usr/lib/libxenon.a(xe.o)
                0x000000008000faa4                Xe_VBFCalcSize
 .text.Xe_VBFCalcStride
                0x000000008000fb1c       0x5c /usr/local/xenon/usr/lib/libxenon.a(xe.o)
                0x000000008000fb1c                Xe_VBFCalcStride
 .text.Xe_ShaderApplyVFetchPatches
                0x000000008000fb78      0x298 /usr/local/xenon/usr/lib/libxenon.a(xe.o)
                0x000000008000fb78                Xe_ShaderApplyVFetchPatches
 .text.Xe_LoadShaderFromMemory
                0x000000008000fe10       0x78 /usr/local/xenon/usr/lib/libxenon.a(xe.o)
                0x000000008000fe10                Xe_LoadShaderFromMemory
 .text.Xe_pWaitReady
                0x000000008000fe88       0x50 /usr/local/xenon/usr/lib/libxenon.a(xe.o)
                0x000000008000fe88                Xe_pWaitReady
 .text.Xe_pResetCP
                0x000000008000fed8      0x124 /usr/local/xenon/usr/lib/libxenon.a(xe.o)
                0x000000008000fed8                Xe_pResetCP
 .text.Xe_pLoadUcodes
                0x000000008000fffc       0xfc /usr/local/xenon/usr/lib/libxenon.a(xe.o)
                0x000000008000fffc                Xe_pLoadUcodes
 .text.Xe_pSetup
                0x00000000800100f8       0xd8 /usr/local/xenon/usr/lib/libxenon.a(xe.o)
                0x00000000800100f8                Xe_pSetup
 .text.Xe_pMasterInit
                0x00000000800101d0       0xcc /usr/local/xenon/usr/lib/libxenon.a(xe.o)
                0x00000000800101d0                Xe_pMasterInit
 .text.Xe_pRBKick
                0x000000008001029c       0x94 /usr/local/xenon/usr/lib/libxenon.a(xe.o)
                0x000000008001029c                Xe_pRBKick
 .text.Xe_pAlloc
                0x0000000080010330       0x6c /usr/local/xenon/usr/lib/libxenon.a(xe.o)
                0x0000000080010330                Xe_pAlloc
 .text.Xe_InstantiateShader
                0x000000008001039c       0xcc /usr/local/xenon/usr/lib/libxenon.a(xe.o)
                0x000000008001039c                Xe_InstantiateShader
 .text.Xe_pRBAlloc
                0x0000000080010468       0x54 /usr/local/xenon/usr/lib/libxenon.a(xe.o)
                0x0000000080010468                Xe_pRBAlloc
 .text.Xe_Init  0x00000000800104bc      0x134 /usr/local/xenon/usr/lib/libxenon.a(xe.o)
                0x00000000800104bc                Xe_Init
 .text.Xe_GetFramebufferSurface
                0x00000000800105f0        0x8 /usr/local/xenon/usr/lib/libxenon.a(xe.o)
                0x00000000800105f0                Xe_GetFramebufferSurface
 .text.Xe_Execute
                0x00000000800105f8       0x34 /usr/local/xenon/usr/lib/libxenon.a(xe.o)
                0x00000000800105f8                Xe_Execute
 .text.Xe_pDebugSync
                0x000000008001062c       0x98 /usr/local/xenon/usr/lib/libxenon.a(xe.o)
                0x000000008001062c                Xe_pDebugSync
 .text.Xe_pUploadALUConstants
                0x00000000800106c4      0x104 /usr/local/xenon/usr/lib/libxenon.a(xe.o)
                0x00000000800106c4                Xe_pUploadALUConstants
 .text.Xe_pUploadFetchConstants
                0x00000000800107c8      0x10c /usr/local/xenon/usr/lib/libxenon.a(xe.o)
                0x00000000800107c8                Xe_pUploadFetchConstants
 .text.Xe_pUploadClipPlane
                0x00000000800108d4       0x64 /usr/local/xenon/usr/lib/libxenon.a(xe.o)
                0x00000000800108d4                Xe_pUploadClipPlane
 .text.Xe_pUploadIntegerConstants
                0x0000000080010938       0x64 /usr/local/xenon/usr/lib/libxenon.a(xe.o)
                0x0000000080010938                Xe_pUploadIntegerConstants
 .text.Xe_pUploadControl
                0x000000008001099c       0x64 /usr/local/xenon/usr/lib/libxenon.a(xe.o)
                0x000000008001099c                Xe_pUploadControl
 .text.Xe_pUploadShader
                0x0000000080010a00       0xf0 /usr/local/xenon/usr/lib/libxenon.a(xe.o)
                0x0000000080010a00                Xe_pUploadShader
 .text.Xe_pInitControl
                0x0000000080010af0       0x90 /usr/local/xenon/usr/lib/libxenon.a(xe.o)
                0x0000000080010af0                Xe_pInitControl
 .text.Xe_SetSrcBlend
                0x0000000080010b80       0x60 /usr/local/xenon/usr/lib/libxenon.a(xe.o)
                0x0000000080010b80                Xe_SetSrcBlend
 .text.Xe_SetDestBlend
                0x0000000080010be0       0x68 /usr/local/xenon/usr/lib/libxenon.a(xe.o)
                0x0000000080010be0                Xe_SetDestBlend
 .text.Xe_SetBlendOp
                0x0000000080010c48       0x68 /usr/local/xenon/usr/lib/libxenon.a(xe.o)
                0x0000000080010c48                Xe_SetBlendOp
 .text.Xe_SetCullMode
                0x0000000080010cb0       0x60 /usr/local/xenon/usr/lib/libxenon.a(xe.o)
                0x0000000080010cb0                Xe_SetCullMode
 .text.Xe_InvalidateState
                0x0000000080010d10       0x14 /usr/local/xenon/usr/lib/libxenon.a(xe.o)
                0x0000000080010d10                Xe_InvalidateState
 .text.Xe_SetShader
                0x0000000080010d24       0xa8 /usr/local/xenon/usr/lib/libxenon.a(xe.o)
                0x0000000080010d24                Xe_SetShader
 .text.Xe_pSetState
                0x0000000080010dcc      0x338 /usr/local/xenon/usr/lib/libxenon.a(xe.o)
                0x0000000080010dcc                Xe_pSetState
 .text.Xe_SetTexture
                0x0000000080011104       0xb0 /usr/local/xenon/usr/lib/libxenon.a(xe.o)
                0x0000000080011104                Xe_SetTexture
 .text.Xe_SetClearColor
                0x00000000800111b4        0x8 /usr/local/xenon/usr/lib/libxenon.a(xe.o)
                0x00000000800111b4                Xe_SetClearColor
 .text.Xe_CreateVertexBuffer
                0x00000000800111bc       0x84 /usr/local/xenon/usr/lib/libxenon.a(xe.o)
                0x00000000800111bc                Xe_CreateVertexBuffer
 .text.Xe_VBPoolAlloc
                0x0000000080011240       0x48 /usr/local/xenon/usr/lib/libxenon.a(xe.o)
                0x0000000080011240                Xe_VBPoolAlloc
 .text.Xe_VBPoolAdd
                0x0000000080011288       0x24 /usr/local/xenon/usr/lib/libxenon.a(xe.o)
                0x0000000080011288                Xe_VBPoolAdd
 .text.Xe_VBReclaim
                0x00000000800112ac       0x30 /usr/local/xenon/usr/lib/libxenon.a(xe.o)
                0x00000000800112ac                Xe_VBReclaim
 .text.Xe_Sync  0x00000000800112dc       0x34 /usr/local/xenon/usr/lib/libxenon.a(xe.o)
                0x00000000800112dc                Xe_Sync
 .text.Xe_VBBegin
                0x0000000080011310       0x4c /usr/local/xenon/usr/lib/libxenon.a(xe.o)
                0x0000000080011310                Xe_VBBegin
 .text.Xe_VBPut
                0x000000008001135c      0x10c /usr/local/xenon/usr/lib/libxenon.a(xe.o)
                0x000000008001135c                Xe_VBPut
 .text.Xe_VBEnd
                0x0000000080011468       0x70 /usr/local/xenon/usr/lib/libxenon.a(xe.o)
                0x0000000080011468                Xe_VBEnd
 .text.Xe_ResolveInto
                0x00000000800114d8      0x7c0 /usr/local/xenon/usr/lib/libxenon.a(xe.o)
                0x00000000800114d8                Xe_ResolveInto
 .text.Xe_Resolve
                0x0000000080011c98       0x10 /usr/local/xenon/usr/lib/libxenon.a(xe.o)
                0x0000000080011c98                Xe_Resolve
 .text.Xe_pCalcVtxCount
                0x0000000080011ca8       0x78 /usr/local/xenon/usr/lib/libxenon.a(xe.o)
                0x0000000080011ca8                Xe_pCalcVtxCount
 .text.Xe_DrawPrimitive
                0x0000000080011d20       0xfc /usr/local/xenon/usr/lib/libxenon.a(xe.o)
                0x0000000080011d20                Xe_DrawPrimitive
 .text.Xe_SetStreamSource
                0x0000000080011e1c       0x78 /usr/local/xenon/usr/lib/libxenon.a(xe.o)
                0x0000000080011e1c                Xe_SetStreamSource
 .text.Xe_SetVertexShaderConstantF
                0x0000000080011e94       0x5c /usr/local/xenon/usr/lib/libxenon.a(xe.o)
                0x0000000080011e94                Xe_SetVertexShaderConstantF
 .text.Xe_CreateTexture
                0x0000000080011ef0       0xf4 /usr/local/xenon/usr/lib/libxenon.a(xe.o)
                0x0000000080011ef0                Xe_CreateTexture
 .text.Xe_Surface_LockRect
                0x0000000080011fe4       0x80 /usr/local/xenon/usr/lib/libxenon.a(xe.o)
                0x0000000080011fe4                Xe_Surface_LockRect
 .text.Xe_Surface_Unlock
                0x0000000080012064        0x8 /usr/local/xenon/usr/lib/libxenon.a(xe.o)
                0x0000000080012064                Xe_Surface_Unlock
 .text.xenos_write32
                0x000000008001206c       0x24 /usr/local/xenon/usr/lib/libxenon.a(xenos.o)
                0x000000008001206c                xenos_write32
 .text.xenos_read32
                0x0000000080012090       0x24 /usr/local/xenon/usr/lib/libxenon.a(xenos.o)
                0x0000000080012090                xenos_read32
 .text.xenos_ana_write
                0x00000000800120b4       0x60 /usr/local/xenon/usr/lib/libxenon.a(xenos.o)
 .text.xenos_init_ana_new
                0x0000000080012114      0x334 /usr/local/xenon/usr/lib/libxenon.a(xenos.o)
                0x0000000080012114                xenos_init_ana_new
 .text.xenos_init_phase0
                0x0000000080012448       0x98 /usr/local/xenon/usr/lib/libxenon.a(xenos.o)
                0x0000000080012448                xenos_init_phase0
 .text.xenos_init_phase1
                0x00000000800124e0      0x3b0 /usr/local/xenon/usr/lib/libxenon.a(xenos.o)
                0x00000000800124e0                xenos_init_phase1
 .text.xenos_ana_preinit
                0x0000000080012890       0xd0 /usr/local/xenon/usr/lib/libxenon.a(xenos.o)
                0x0000000080012890                xenos_ana_preinit
 .text.xenos_set_mode_f1
                0x0000000080012960      0x148 /usr/local/xenon/usr/lib/libxenon.a(xenos.o)
                0x0000000080012960                xenos_set_mode_f1
 .text.xenos_set_mode_f2
                0x0000000080012aa8      0x304 /usr/local/xenon/usr/lib/libxenon.a(xenos.o)
                0x0000000080012aa8                xenos_set_mode_f2
 .text.xenos_set_mode
                0x0000000080012dac      0x348 /usr/local/xenon/usr/lib/libxenon.a(xenos.o)
                0x0000000080012dac                xenos_set_mode
 .text.xenos_autoset_mode
                0x00000000800130f4       0xf8 /usr/local/xenon/usr/lib/libxenon.a(xenos.o)
                0x00000000800130f4                xenos_autoset_mode
 .text.xenos_init
                0x00000000800131ec       0xac /usr/local/xenon/usr/lib/libxenon.a(xenos.o)
                0x00000000800131ec                xenos_init
 .text.determine_filesystem
                0x0000000080013298       0x78 /usr/local/xenon/usr/lib/libxenon.a(diskio.o)
                0x0000000080013298                determine_filesystem
 .text.register_bdev
                0x0000000080013310       0xd0 /usr/local/xenon/usr/lib/libxenon.a(diskio.o)
                0x0000000080013310                register_bdev
 .text._fat_umount
                0x00000000800133e0       0x28 /usr/local/xenon/usr/lib/libxenon.a(fat.o)
                0x00000000800133e0                _fat_umount
 .text._fat_mount
                0x0000000080013408       0x38 /usr/local/xenon/usr/lib/libxenon.a(fat.o)
                0x0000000080013408                _fat_mount
 .text._fat_opendir
                0x0000000080013440       0x68 /usr/local/xenon/usr/lib/libxenon.a(fat.o)
                0x0000000080013440                _fat_opendir
 .text._fat_open
                0x00000000800134a8       0x44 /usr/local/xenon/usr/lib/libxenon.a(fat.o)
                0x00000000800134a8                _fat_open
 .text._fat_readdir
                0x00000000800134ec       0x8c /usr/local/xenon/usr/lib/libxenon.a(fat.o)
                0x00000000800134ec                _fat_readdir
 .text._fat_closedir
                0x0000000080013578       0x30 /usr/local/xenon/usr/lib/libxenon.a(fat.o)
                0x0000000080013578                _fat_closedir
 .text._fat_close
                0x00000000800135a8       0x24 /usr/local/xenon/usr/lib/libxenon.a(fat.o)
                0x00000000800135a8                _fat_close
 .text._fat_fstat
                0x00000000800135cc       0x44 /usr/local/xenon/usr/lib/libxenon.a(fat.o)
                0x00000000800135cc                _fat_fstat
 .text._fat_write
                0x0000000080013610       0x24 /usr/local/xenon/usr/lib/libxenon.a(fat.o)
                0x0000000080013610                _fat_write
 .text._fat_read
                0x0000000080013634       0x24 /usr/local/xenon/usr/lib/libxenon.a(fat.o)
                0x0000000080013634                _fat_read
 .text._fat_lseek
                0x0000000080013658       0x24 /usr/local/xenon/usr/lib/libxenon.a(fat.o)
                0x0000000080013658                _fat_lseek
 .text.fat_time
                0x000000008001367c      0x11c /usr/local/xenon/usr/lib/libxenon.a(fat_rb.o)
 .text.flush_fat_sector
                0x0000000080013798       0xe8 /usr/local/xenon/usr/lib/libxenon.a(fat_rb.o)
 .text.cache_fat_sector
                0x0000000080013880      0x128 /usr/local/xenon/usr/lib/libxenon.a(fat_rb.o)
 .text.get_next_cluster
                0x00000000800139a8       0xe0 /usr/local/xenon/usr/lib/libxenon.a(fat_rb.o)
 .text.find_free_cluster
                0x0000000080013a88      0x178 /usr/local/xenon/usr/lib/libxenon.a(fat_rb.o)
 .text.update_fat_entry
                0x0000000080013c00      0x1f0 /usr/local/xenon/usr/lib/libxenon.a(fat_rb.o)
 .text.transfer
                0x0000000080013df0      0x134 /usr/local/xenon/usr/lib/libxenon.a(fat_rb.o)
 .text.randomize_dos_name
                0x0000000080013f24      0x14c /usr/local/xenon/usr/lib/libxenon.a(fat_rb.o)
 .text.cluster2sec
                0x0000000080014070       0x60 /usr/local/xenon/usr/lib/libxenon.a(fat_rb.o)
 .text.update_fsinfo.part.1
                0x00000000800140d0       0xcc /usr/local/xenon/usr/lib/libxenon.a(fat_rb.o)
 .text.flush_fat
                0x000000008001419c       0xbc /usr/local/xenon/usr/lib/libxenon.a(fat_rb.o)
 .text.fat_init
                0x0000000080014258       0x84 /usr/local/xenon/usr/lib/libxenon.a(fat_rb.o)
                0x0000000080014258                fat_init
 .text.fat_unmount
                0x00000000800142dc       0xac /usr/local/xenon/usr/lib/libxenon.a(fat_rb.o)
                0x00000000800142dc                fat_unmount
 .text.fat_recalc_free
                0x0000000080014388      0x15c /usr/local/xenon/usr/lib/libxenon.a(fat_rb.o)
                0x0000000080014388                fat_recalc_free
 .text.fat_mount
                0x00000000800144e4      0x4a4 /usr/local/xenon/usr/lib/libxenon.a(fat_rb.o)
                0x00000000800144e4                fat_mount
 .text.fat_open
                0x0000000080014988       0x7c /usr/local/xenon/usr/lib/libxenon.a(fat_rb.o)
                0x0000000080014988                fat_open
 .text.fat_truncate
                0x0000000080014a04       0x94 /usr/local/xenon/usr/lib/libxenon.a(fat_rb.o)
                0x0000000080014a04                fat_truncate
 .text.fat_readwrite
                0x0000000080014a98      0x304 /usr/local/xenon/usr/lib/libxenon.a(fat_rb.o)
                0x0000000080014a98                fat_readwrite
 .text.fat_seek
                0x0000000080014d9c      0x110 /usr/local/xenon/usr/lib/libxenon.a(fat_rb.o)
                0x0000000080014d9c                fat_seek
 .text.write_long_name
                0x0000000080014eac      0x498 /usr/local/xenon/usr/lib/libxenon.a(fat_rb.o)
 .text.add_dir_entry
                0x0000000080015344      0x51c /usr/local/xenon/usr/lib/libxenon.a(fat_rb.o)
 .text.fat_create_file
                0x0000000080015860       0x58 /usr/local/xenon/usr/lib/libxenon.a(fat_rb.o)
                0x0000000080015860                fat_create_file
 .text.update_short_entry
                0x00000000800158b8      0x1d4 /usr/local/xenon/usr/lib/libxenon.a(fat_rb.o)
 .text.fat_closewrite
                0x0000000080015a8c       0x98 /usr/local/xenon/usr/lib/libxenon.a(fat_rb.o)
                0x0000000080015a8c                fat_closewrite
 .text.fat_opendir
                0x0000000080015b24       0x98 /usr/local/xenon/usr/lib/libxenon.a(fat_rb.o)
                0x0000000080015b24                fat_opendir
 .text.fat_getnext
                0x0000000080015bbc      0x434 /usr/local/xenon/usr/lib/libxenon.a(fat_rb.o)
                0x0000000080015bbc                fat_getnext
 .text.flush_cache
                0x0000000080015ff0       0xb4 /usr/local/xenon/usr/lib/libxenon.a(file_rb.o)
 .text.readwrite
                0x00000000800160a4      0x404 /usr/local/xenon/usr/lib/libxenon.a(file_rb.o)
 .text.rb_ftruncate
                0x00000000800164a8       0xa4 /usr/local/xenon/usr/lib/libxenon.a(file_rb.o)
                0x00000000800164a8                rb_ftruncate
 .text.rb_fsync
                0x000000008001654c      0x114 /usr/local/xenon/usr/lib/libxenon.a(file_rb.o)
                0x000000008001654c                rb_fsync
 .text.rb_close
                0x0000000080016660       0x98 /usr/local/xenon/usr/lib/libxenon.a(file_rb.o)
                0x0000000080016660                rb_close
 .text.rb_write
                0x00000000800166f8       0x5c /usr/local/xenon/usr/lib/libxenon.a(file_rb.o)
                0x00000000800166f8                rb_write
 .text.rb_read  0x0000000080016754        0x8 /usr/local/xenon/usr/lib/libxenon.a(file_rb.o)
                0x0000000080016754                rb_read
 .text.rb_lseek
                0x000000008001675c      0x1b0 /usr/local/xenon/usr/lib/libxenon.a(file_rb.o)
                0x000000008001675c                rb_lseek
 .text.open_internal.isra.1
                0x000000008001690c      0x374 /usr/local/xenon/usr/lib/libxenon.a(file_rb.o)
 .text.rb_open  0x0000000080016c80        0x4 /usr/local/xenon/usr/lib/libxenon.a(file_rb.o)
                0x0000000080016c80                rb_open
 .text.rb_filesize
                0x0000000080016c84       0x64 /usr/local/xenon/usr/lib/libxenon.a(file_rb.o)
                0x0000000080016c84                rb_filesize
 .text.rb_opendir
                0x0000000080016ce8      0x190 /usr/local/xenon/usr/lib/libxenon.a(dir_rb.o)
                0x0000000080016ce8                rb_opendir
 .text.rb_closedir
                0x0000000080016e78       0x10 /usr/local/xenon/usr/lib/libxenon.a(dir_rb.o)
                0x0000000080016e78                rb_closedir
 .text.rb_readdir
                0x0000000080016e88       0x90 /usr/local/xenon/usr/lib/libxenon.a(dir_rb.o)
                0x0000000080016e88                rb_readdir
 .text.iso_733  0x0000000080016f18       0x2c /usr/local/xenon/usr/lib/libxenon.a(iso9660.o)
 .text._iso9660_lseek
                0x0000000080016f44       0x98 /usr/local/xenon/usr/lib/libxenon.a(iso9660.o)
                0x0000000080016f44                _iso9660_lseek
 .text._iso9660_fstat
                0x0000000080016fdc       0x5c /usr/local/xenon/usr/lib/libxenon.a(iso9660.o)
                0x0000000080016fdc                _iso9660_fstat
 .text._iso9660_close
                0x0000000080017038       0x24 /usr/local/xenon/usr/lib/libxenon.a(iso9660.o)
                0x0000000080017038                _iso9660_close
 .text._iso9660_closedir
                0x000000008001705c       0x28 /usr/local/xenon/usr/lib/libxenon.a(iso9660.o)
                0x000000008001705c                _iso9660_closedir
 .text.bclear_cache
                0x0000000080017084       0x58 /usr/local/xenon/usr/lib/libxenon.a(iso9660.o)
 .text.bgrad_cache.part.0
                0x00000000800170dc       0x38 /usr/local/xenon/usr/lib/libxenon.a(iso9660.o)
 .text.iso_reset
                0x0000000080017114       0x84 /usr/local/xenon/usr/lib/libxenon.a(iso9660.o)
                0x0000000080017114                iso_reset
 .text.init_percd
                0x0000000080017198      0x1a8 /usr/local/xenon/usr/lib/libxenon.a(iso9660.o)
 .text.bread_cache
                0x0000000080017340      0x12c /usr/local/xenon/usr/lib/libxenon.a(iso9660.o)
 .text.find_object
                0x000000008001746c      0x364 /usr/local/xenon/usr/lib/libxenon.a(iso9660.o)
 .text._iso9660_readdir
                0x00000000800177d0      0x3e0 /usr/local/xenon/usr/lib/libxenon.a(iso9660.o)
                0x00000000800177d0                _iso9660_readdir
 .text._iso9660_read
                0x0000000080017bb0      0x170 /usr/local/xenon/usr/lib/libxenon.a(iso9660.o)
                0x0000000080017bb0                _iso9660_read
 .text.iso_open
                0x0000000080017d20      0x1ac /usr/local/xenon/usr/lib/libxenon.a(iso9660.o)
 .text._iso9660_opendir
                0x0000000080017ecc       0x48 /usr/local/xenon/usr/lib/libxenon.a(iso9660.o)
                0x0000000080017ecc                _iso9660_opendir
 .text._iso9660_open
                0x0000000080017f14       0x48 /usr/local/xenon/usr/lib/libxenon.a(iso9660.o)
                0x0000000080017f14                _iso9660_open
 .text.fs_iso9660_init
                0x0000000080017f5c       0xbc /usr/local/xenon/usr/lib/libxenon.a(iso9660.o)
                0x0000000080017f5c                fs_iso9660_init
 .text._iso9660_mount
                0x0000000080018018        0xc /usr/local/xenon/usr/lib/libxenon.a(iso9660.o)
                0x0000000080018018                _iso9660_mount
 .text.fs_iso9660_shutdown
                0x0000000080018024       0x88 /usr/local/xenon/usr/lib/libxenon.a(iso9660.o)
                0x0000000080018024                fs_iso9660_shutdown
 .text._iso9660_umount
                0x00000000800180ac        0x4 /usr/local/xenon/usr/lib/libxenon.a(iso9660.o)
                0x00000000800180ac                _iso9660_umount
 .text.kmeminit
                0x00000000800180b0       0x38 /usr/local/xenon/usr/lib/libxenon.a(lib_malloc.o)
                0x00000000800180b0                kmeminit
 .text.kfree    0x00000000800180e8       0xb8 /usr/local/xenon/usr/lib/libxenon.a(lib_malloc.o)
                0x00000000800180e8                kfree
 .text.lib_outofmemory
                0x00000000800181a0       0x28 /usr/local/xenon/usr/lib/libxenon.a(lib_malloc.o)
                0x00000000800181a0                lib_outofmemory
 .text.kmalloc  0x00000000800181c8      0x138 /usr/local/xenon/usr/lib/libxenon.a(lib_malloc.o)
                0x00000000800181c8                kmalloc
 .text.kmem_init
                0x0000000080018300       0x64 /usr/local/xenon/usr/lib/libxenon.a(lib_malloc.o)
                0x0000000080018300                kmem_init
 .text.read32   0x0000000080018364        0x8 /usr/local/xenon/usr/lib/libxenon.a(io.o)
                0x0000000080018364                read32
 .text.read32n  0x000000008001836c        0x8 /usr/local/xenon/usr/lib/libxenon.a(io.o)
                0x000000008001836c                read32n
 .text.write32  0x0000000080018374        0x8 /usr/local/xenon/usr/lib/libxenon.a(io.o)
                0x0000000080018374                write32
 .text.write32n
                0x000000008001837c        0x8 /usr/local/xenon/usr/lib/libxenon.a(io.o)
                0x000000008001837c                write32n
 .text.__pswap32
                0x0000000080018384       0x14 /usr/local/xenon/usr/lib/libxenon.a(ohci.o)
 .text.phys_read32
                0x0000000080018398        0x8 /usr/local/xenon/usr/lib/libxenon.a(ohci.o)
 .text._ohci_allocept
                0x00000000800183a0       0x64 /usr/local/xenon/usr/lib/libxenon.a(ohci.o)
 .text._ohci_allocxfer
                0x0000000080018404       0x5c /usr/local/xenon/usr/lib/libxenon.a(ohci.o)
 .text.ohci_stop
                0x0000000080018460       0x30 /usr/local/xenon/usr/lib/libxenon.a(ohci.o)
 .text.ohci_delete
                0x0000000080018490        0x4 /usr/local/xenon/usr/lib/libxenon.a(ohci.o)
 .text.ohci_ept_cleartoggle
                0x0000000080018494       0x64 /usr/local/xenon/usr/lib/libxenon.a(ohci.o)
 .text.ohci_ept_setaddr
                0x00000000800184f8       0x38 /usr/local/xenon/usr/lib/libxenon.a(ohci.o)
 .text.ohci_ept_setmps
                0x0000000080018530       0x44 /usr/local/xenon/usr/lib/libxenon.a(ohci.o)
 .text._ohci_queueept
                0x0000000080018574       0x5c /usr/local/xenon/usr/lib/libxenon.a(ohci.o)
 .text.ohci_ept_create
                0x00000000800185d0      0x148 /usr/local/xenon/usr/lib/libxenon.a(ohci.o)
 .text.ohci_ept_delete
                0x0000000080018718      0x1fc /usr/local/xenon/usr/lib/libxenon.a(ohci.o)
 .text.ohci_start
                0x0000000080018914      0x198 /usr/local/xenon/usr/lib/libxenon.a(ohci.o)
 .text.ohci_roothub_strdscr
                0x0000000080018aac       0x6c /usr/local/xenon/usr/lib/libxenon.a(ohci.o)
 .text.ohci_intr
                0x0000000080018b18      0x208 /usr/local/xenon/usr/lib/libxenon.a(ohci.o)
 .text._ohci_dma_alloc
                0x0000000080018d20       0x50 /usr/local/xenon/usr/lib/libxenon.a(ohci.o)
 .text.ohci_create
                0x0000000080018d70      0x2a8 /usr/local/xenon/usr/lib/libxenon.a(ohci.o)
 .text.ohci_xfer
                0x0000000080019018      0x7b4 /usr/local/xenon/usr/lib/libxenon.a(ohci.o)
 .text.usb_create_pipe
                0x00000000800197cc       0xd8 /usr/local/xenon/usr/lib/libxenon.a(usbd.o)
                0x00000000800197cc                usb_create_pipe
 .text.usb_open_pipe
                0x00000000800198a4       0x84 /usr/local/xenon/usr/lib/libxenon.a(usbd.o)
                0x00000000800198a4                usb_open_pipe
 .text.usb_destroy_all_pipes
                0x0000000080019928       0x74 /usr/local/xenon/usr/lib/libxenon.a(usbd.o)
                0x0000000080019928                usb_destroy_all_pipes
 .text.usb_destroy_device
                0x000000008001999c       0x4c /usr/local/xenon/usr/lib/libxenon.a(usbd.o)
                0x000000008001999c                usb_destroy_device
 .text.usb_create_device
                0x00000000800199e8       0x78 /usr/local/xenon/usr/lib/libxenon.a(usbd.o)
                0x00000000800199e8                usb_create_device
 .text.usb_make_request
                0x0000000080019a60       0x8c /usr/local/xenon/usr/lib/libxenon.a(usbd.o)
                0x0000000080019a60                usb_make_request
 .text.usb_poll
                0x0000000080019aec       0x2c /usr/local/xenon/usr/lib/libxenon.a(usbd.o)
                0x0000000080019aec                usb_poll
 .text.usb_daemon
                0x0000000080019b18       0x38 /usr/local/xenon/usr/lib/libxenon.a(usbd.o)
                0x0000000080019b18                usb_daemon
 .text.usb_free_request
                0x0000000080019b50       0x48 /usr/local/xenon/usr/lib/libxenon.a(usbd.o)
                0x0000000080019b50                usb_free_request
 .text.usb_delay_ms
                0x0000000080019b98       0x28 /usr/local/xenon/usr/lib/libxenon.a(usbd.o)
                0x0000000080019b98                usb_delay_ms
 .text.usb_queue_request
                0x0000000080019bc0       0x50 /usr/local/xenon/usr/lib/libxenon.a(usbd.o)
                0x0000000080019bc0                usb_queue_request
 .text.usb_wait_request
                0x0000000080019c10       0x40 /usr/local/xenon/usr/lib/libxenon.a(usbd.o)
                0x0000000080019c10                usb_wait_request
 .text.usb_sync_request
                0x0000000080019c50       0x34 /usr/local/xenon/usr/lib/libxenon.a(usbd.o)
                0x0000000080019c50                usb_sync_request
 .text.usb_new_address
                0x0000000080019c84       0x30 /usr/local/xenon/usr/lib/libxenon.a(usbd.o)
                0x0000000080019c84                usb_new_address
 .text.usb_set_ep0mps
                0x0000000080019cb4       0x60 /usr/local/xenon/usr/lib/libxenon.a(usbd.o)
                0x0000000080019cb4                usb_set_ep0mps
 .text.usb_clear_stall
                0x0000000080019d14      0x100 /usr/local/xenon/usr/lib/libxenon.a(usbd.o)
                0x0000000080019d14                usb_clear_stall
 .text.usb_std_request
                0x0000000080019e14      0x234 /usr/local/xenon/usr/lib/libxenon.a(usbd.o)
                0x0000000080019e14                usb_std_request
 .text.usb_simple_request
                0x000000008001a048       0x18 /usr/local/xenon/usr/lib/libxenon.a(usbd.o)
                0x000000008001a048                usb_simple_request
 .text.usb_set_address
                0x000000008001a060       0x9c /usr/local/xenon/usr/lib/libxenon.a(usbd.o)
                0x000000008001a060                usb_set_address
 .text.usb_set_configuration
                0x000000008001a0fc       0x14 /usr/local/xenon/usr/lib/libxenon.a(usbd.o)
                0x000000008001a0fc                usb_set_configuration
 .text.usb_get_descriptor
                0x000000008001a110       0x24 /usr/local/xenon/usr/lib/libxenon.a(usbd.o)
                0x000000008001a110                usb_get_descriptor
 .text.usb_get_string
                0x000000008001a134      0x104 /usr/local/xenon/usr/lib/libxenon.a(usbd.o)
                0x000000008001a134                usb_get_string
 .text.usb_get_device_descriptor
                0x000000008001a238       0x90 /usr/local/xenon/usr/lib/libxenon.a(usbd.o)
                0x000000008001a238                usb_get_device_descriptor
 .text.usb_get_config_descriptor
                0x000000008001a2c8       0x8c /usr/local/xenon/usr/lib/libxenon.a(usbd.o)
                0x000000008001a2c8                usb_get_config_descriptor
 .text.usb_get_device_status
                0x000000008001a354       0x1c /usr/local/xenon/usr/lib/libxenon.a(usbd.o)
                0x000000008001a354                usb_get_device_status
 .text.usb_complete_request
                0x000000008001a370       0x3c /usr/local/xenon/usr/lib/libxenon.a(usbd.o)
                0x000000008001a370                usb_complete_request
 .text.usb_initroot
                0x000000008001a3ac      0x150 /usr/local/xenon/usr/lib/libxenon.a(usbd.o)
                0x000000008001a3ac                usb_initroot
 .text.usb_find_cfg_descr
                0x000000008001a4fc       0x54 /usr/local/xenon/usr/lib/libxenon.a(usbd.o)
                0x000000008001a4fc                usb_find_cfg_descr
 .text.usb_find_driver
                0x000000008001a550      0x104 /usr/local/xenon/usr/lib/libxenon.a(usbdevs.o)
                0x000000008001a550                usb_find_driver
 .text.usbhid_detach
                0x000000008001a654        0x8 /usr/local/xenon/usr/lib/libxenon.a(usbhid.o)
 .text.usbhid_attach
                0x000000008001a65c      0x164 /usr/local/xenon/usr/lib/libxenon.a(usbhid.o)
 .text.usbhid_kbd_scan1.isra.0.part.1
                0x000000008001a7c0       0x94 /usr/local/xenon/usr/lib/libxenon.a(usbhid.o)
 .text.usbhid_ireq_callback
                0x000000008001a854      0x18c /usr/local/xenon/usr/lib/libxenon.a(usbhid.o)
 .text.usbhub_markdetached1
                0x000000008001a9e0       0x14 /usr/local/xenon/usr/lib/libxenon.a(usbhub.o)
 .text.usbhub_get_port_status
                0x000000008001a9f4       0x38 /usr/local/xenon/usr/lib/libxenon.a(usbhub.o)
 .text.usbhub_ireq_callback
                0x000000008001aa2c       0x8c /usr/local/xenon/usr/lib/libxenon.a(usbhub.o)
 .text.usbhub_map_tree1
                0x000000008001aab8       0x7c /usr/local/xenon/usr/lib/libxenon.a(usbhub.o)
 .text.usbhub_detach
                0x000000008001ab34      0x13c /usr/local/xenon/usr/lib/libxenon.a(usbhub.o)
 .text.usbhub_attach
                0x000000008001ac70      0x1a4 /usr/local/xenon/usr/lib/libxenon.a(usbhub.o)
 .text.usbhub_map_tree
                0x000000008001ae14       0x18 /usr/local/xenon/usr/lib/libxenon.a(usbhub.o)
                0x000000008001ae14                usbhub_map_tree
 .text.usbhub_map_from_device
                0x000000008001ae2c       0x14 /usr/local/xenon/usr/lib/libxenon.a(usbhub.o)
                0x000000008001ae2c                usbhub_map_from_device
 .text.usbhub_scan1
                0x000000008001ae40      0x558 /usr/local/xenon/usr/lib/libxenon.a(usbhub.o)
 .text.usb_scan
                0x000000008001b398       0x10 /usr/local/xenon/usr/lib/libxenon.a(usbhub.o)
                0x000000008001b398                usb_scan
 .text.ehci_maligned
                0x000000008001b3a8       0x9c /usr/local/xenon/usr/lib/libxenon.a(usb_os.o)
                0x000000008001b3a8                ehci_maligned
 .text.ehci_virt_to_dma
                0x000000008001b444        0x8 /usr/local/xenon/usr/lib/libxenon.a(usb_os.o)
                0x000000008001b444                ehci_virt_to_dma
 .text.ehci_dma_map_to
                0x000000008001b44c       0x28 /usr/local/xenon/usr/lib/libxenon.a(usb_os.o)
                0x000000008001b44c                ehci_dma_map_to
 .text.ehci_dma_map_from
                0x000000008001b474       0x28 /usr/local/xenon/usr/lib/libxenon.a(usb_os.o)
                0x000000008001b474                ehci_dma_map_from
 .text.ehci_dma_map_bidir
                0x000000008001b49c       0x28 /usr/local/xenon/usr/lib/libxenon.a(usb_os.o)
                0x000000008001b49c                ehci_dma_map_bidir
 .text.ehci_dma_unmap_to
                0x000000008001b4c4       0x24 /usr/local/xenon/usr/lib/libxenon.a(usb_os.o)
                0x000000008001b4c4                ehci_dma_unmap_to
 .text.ehci_dma_unmap_from
                0x000000008001b4e8       0x24 /usr/local/xenon/usr/lib/libxenon.a(usb_os.o)
                0x000000008001b4e8                ehci_dma_unmap_from
 .text.ehci_dma_unmap_bidir
                0x000000008001b50c       0x24 /usr/local/xenon/usr/lib/libxenon.a(usb_os.o)
                0x000000008001b50c                ehci_dma_unmap_bidir
 .text.ehci_usleep
                0x000000008001b530       0x20 /usr/local/xenon/usr/lib/libxenon.a(usb_os.o)
                0x000000008001b530                ehci_usleep
 .text.ehci_msleep
                0x000000008001b550       0x20 /usr/local/xenon/usr/lib/libxenon.a(usb_os.o)
                0x000000008001b550                ehci_msleep
 .text.USB_Alloc
                0x000000008001b570       0x20 /usr/local/xenon/usr/lib/libxenon.a(usb_os.o)
                0x000000008001b570                USB_Alloc
 .text.USB_Free
                0x000000008001b590       0x20 /usr/local/xenon/usr/lib/libxenon.a(usb_os.o)
                0x000000008001b590                USB_Free
 .text.utf8encode
                0x000000008001b5b0       0x8c /usr/local/xenon/usr/lib/libxenon.a(unicode_rb.o)
                0x000000008001b5b0                utf8encode
 .text.utf8length
                0x000000008001b63c       0x30 /usr/local/xenon/usr/lib/libxenon.a(unicode_rb.o)
                0x000000008001b63c                utf8length
 .text.utf8decode
                0x000000008001b66c       0xd0 /usr/local/xenon/usr/lib/libxenon.a(unicode_rb.o)
                0x000000008001b66c                utf8decode
 .text.xenon_gpio_set_oe
                0x000000008001b73c       0x44 /usr/local/xenon/usr/lib/libxenon.a(xenon_gpio.o)
                0x000000008001b73c                xenon_gpio_set_oe
 .text.xenon_gpio_set
                0x000000008001b780       0x44 /usr/local/xenon/usr/lib/libxenon.a(xenon_gpio.o)
                0x000000008001b780                xenon_gpio_set
 .text.xenon_config_init
                0x000000008001b7c4       0xb0 /usr/local/xenon/usr/lib/libxenon.a(xenon_config.o)
                0x000000008001b7c4                xenon_config_init
 .text.xenon_config_get_avregion
                0x000000008001b874       0x94 /usr/local/xenon/usr/lib/libxenon.a(xenon_config.o)
                0x000000008001b874                xenon_config_get_avregion
 .text.storage_read_sectors
                0x000000008001b908      0x168 /usr/local/xenon/usr/lib/libxenon.a(disk_rb.o)
                0x000000008001b908                storage_read_sectors
 .text.disk_init
                0x000000008001ba70      0x12c /usr/local/xenon/usr/lib/libxenon.a(disk_rb.o)
                0x000000008001ba70                disk_init
 .text.disk_mount
                0x000000008001bb9c       0xfc /usr/local/xenon/usr/lib/libxenon.a(disk_rb.o)
                0x000000008001bb9c                disk_mount
 .text.storage_write_sectors
                0x000000008001bc98       0x6c /usr/local/xenon/usr/lib/libxenon.a(disk_rb.o)
                0x000000008001bc98                storage_write_sectors
 .text.q_enqueue
                0x000000008001bd04       0x18 /usr/local/xenon/usr/lib/libxenon.a(lib_queue.o)
                0x000000008001bd04                q_enqueue
 .text.q_deqnext
                0x000000008001bd1c       0x30 /usr/local/xenon/usr/lib/libxenon.a(lib_queue.o)
                0x000000008001bd1c                q_deqnext
 .text.usbctrl_detach
                0x000000008001bd4c       0x54 /usr/local/xenon/usr/lib/libxenon.a(usbctrl.o)
 .text.usbctrl_attach
                0x000000008001bda0      0x1a0 /usr/local/xenon/usr/lib/libxenon.a(usbctrl.o)
 .text.usbctrl_ireq_callback
                0x000000008001bf40      0x188 /usr/local/xenon/usr/lib/libxenon.a(usbctrl.o)
 .text.getstringmaybe
                0x000000008001c0c8       0x6c /usr/local/xenon/usr/lib/libxenon.a(usbdebug.o)
 .text.usb_dbg_dumpportstatus
                0x000000008001c134      0x25c /usr/local/xenon/usr/lib/libxenon.a(usbdebug.o)
                0x000000008001c134                usb_dbg_dumpportstatus
 .text.usb_dbg_dumpdescriptors
                0x000000008001c390      0x678 /usr/local/xenon/usr/lib/libxenon.a(usbdebug.o)
                0x000000008001c390                usb_dbg_dumpdescriptors
 .text.sfcx_read_page
                0x000000008001ca08      0x148 /usr/local/xenon/usr/lib/libxenon.a(xenon_sfcx.o)
                0x000000008001ca08                sfcx_read_page
 .text.sfcx_init
                0x000000008001cb50      0x270 /usr/local/xenon/usr/lib/libxenon.a(xenon_sfcx.o)
                0x000000008001cb50                sfcx_init
 .text          0x000000008001cdc0     0x40f8 /usr/local/xenon/usr/lib/libpng.a(libpng15_la-png.o)
                0x000000008001cdc0                png_set_sig_bytes
                0x000000008001ce48                png_sig_cmp
                0x000000008001cf30                png_zalloc
                0x000000008001d01c                png_zfree
                0x000000008001d05c                png_reset_crc
                0x000000008001d0ac                png_calculate_crc
                0x000000008001d184                png_create_info_struct
                0x000000008001d21c                png_destroy_info_struct
                0x000000008001d2d8                png_info_init_3
                0x000000008001d380                png_data_freer
                0x000000008001d450                png_free_data
                0x000000008001ddc4                png_info_destroy
                0x000000008001de6c                png_get_io_ptr
                0x000000008001deb0                png_init_io
                0x000000008001def8                png_convert_to_rfc1123
                0x000000008001e0c4                png_get_copyright
                0x000000008001e0f0                png_get_libpng_ver
                0x000000008001e130                png_get_header_ver
                0x000000008001e15c                png_get_header_version
                0x000000008001e188                png_handle_as_unknown
                0x000000008001e294                png_reset_zstream
                0x000000008001e2f0                png_access_version_number
                0x000000008001e314                png_check_cHRM_fixed
                0x000000008001e56c                png_check_IHDR
                0x000000008001e940                png_check_fp_number
                0x000000008001ec24                png_check_fp_string
                0x000000008001edf0                png_ascii_from_fp
                0x000000008001f7ac                png_ascii_from_fixed
                0x000000008001fa50                png_fixed
                0x000000008001fb34                png_muldiv
                0x000000008001fcb4                png_muldiv_warn
                0x000000008001fd34                png_reciprocal
                0x000000008001ff40                png_reciprocal2
                0x000000008002005c                png_64bit_product
                0x000000008002015c                png_gamma_8bit_correct
                0x0000000080020260                png_gamma_16bit_correct
                0x0000000080020368                png_gamma_correct
                0x00000000800203e0                png_gamma_significant
                0x0000000080020a78                png_build_gamma_table
 .text          0x0000000080020eb8      0x954 /usr/local/xenon/usr/lib/libpng.a(libpng15_la-pngerror.o)
                0x0000000080020eb8                png_error
                0x0000000080020f1c                png_warning
                0x000000008002102c                png_benign_error
                0x0000000080021380                png_chunk_error
                0x00000000800213d8                png_chunk_warning
                0x000000008002144c                png_chunk_benign_error
                0x00000000800214b0                png_fixed_error
                0x00000000800215a4                png_set_longjmp_fn
                0x0000000080021678                png_longjmp
                0x0000000080021758                png_set_error_fn
                0x00000000800217c8                png_get_error_ptr
 .text          0x000000008002180c      0x628 /usr/local/xenon/usr/lib/libpng.a(libpng15_la-pngmem.o)
                0x000000008002180c                png_create_struct
                0x0000000080021854                png_create_struct_2
                0x0000000080021970                png_destroy_struct
                0x00000000800219b0                png_destroy_struct_2
                0x0000000080021a38                png_calloc
                0x0000000080021ab0                png_malloc
                0x0000000080021b8c                png_malloc_default
                0x0000000080021bf8                png_free
                0x0000000080021c8c                png_free_default
                0x0000000080021ce8                png_malloc_warn
                0x0000000080021d88                png_set_mem_fn
                0x0000000080021df0                png_get_mem_ptr
 .text          0x0000000080021e34     0x31ac /usr/local/xenon/usr/lib/libpng.a(libpng15_la-pngread.o)
                0x0000000080021e34                png_create_read_struct
                0x0000000080021e98                png_create_read_struct_2
                0x00000000800223d4                png_read_info
                0x0000000080022d58                png_read_update_info
                0x0000000080022de0                png_start_read_image
                0x0000000080022e58                png_read_row
                0x0000000080023980                png_read_rows
                0x0000000080023b30                png_read_image
                0x0000000080023c9c                png_read_end
                0x0000000080024500                png_destroy_read_struct
                0x00000000800246a4                png_read_destroy
                0x0000000080024be0                png_set_read_status_fn
                0x0000000080024c28                png_read_png
 .text          0x0000000080024fe0      0x1dc /usr/local/xenon/usr/lib/libpng.a(libpng15_la-pngrio.o)
                0x0000000080024fe0                png_read_data
                0x000000008002505c                png_default_read_data
                0x00000000800250e8                png_set_read_fn
 .text          0x00000000800251bc     0xe87c /usr/local/xenon/usr/lib/libpng.a(libpng15_la-pngrtran.o)
                0x00000000800251bc                png_set_crc_action
                0x0000000080025414                png_set_background_fixed
                0x000000008002552c                png_set_background
                0x000000008002559c                png_set_strip_16
                0x000000008002560c                png_set_strip_alpha
                0x000000008002565c                png_set_quantize
                0x0000000080026b34                png_set_gamma_fixed
                0x0000000080026c08                png_set_gamma
                0x0000000080026c88                png_set_expand
                0x0000000080026cfc                png_set_palette_to_rgb
                0x0000000080026d70                png_set_expand_gray_1_2_4_to_8
                0x0000000080026de0                png_set_tRNS_to_alpha
                0x0000000080026e40                png_set_expand_16
                0x0000000080026ed4                png_set_gray_to_rgb
                0x0000000080026f54                png_set_rgb_to_gray_fixed
                0x000000008002715c                png_set_rgb_to_gray
                0x00000000800271f8                png_set_read_user_transform_fn
                0x000000008002725c                png_init_read_transformations
                0x000000008002900c                png_read_transform_info
                0x00000000800296c4                png_do_read_transformations
                0x000000008002a0d0                png_do_unpack
                0x000000008002a448                png_do_unshift
                0x000000008002aa48                png_do_chop
                0x000000008002ab74                png_do_read_swap_alpha
                0x000000008002b114                png_do_read_invert_alpha
                0x000000008002b4ac                png_do_read_filler
                0x000000008002c0e8                png_do_gray_to_rgb
                0x000000008002c7a4                png_do_rgb_to_gray
                0x000000008002dba4                png_build_grayscale_palette
                0x000000008002dd2c                png_do_background
                0x0000000080030ed8                png_do_gamma
                0x0000000080031bac                png_do_expand_palette
                0x0000000080032314                png_do_expand
                0x0000000080033144                png_do_expand_16
                0x0000000080033278                png_do_quantize
                0x0000000080033708                png_do_read_intrapixel
 .text          0x0000000080033a38     0x8480 /usr/local/xenon/usr/lib/libpng.a(libpng15_la-pngrutil.o)
                0x0000000080033a38                png_get_uint_31
                0x0000000080033bcc                png_get_uint_32
                0x0000000080033c5c                png_get_int_32
                0x0000000080033d10                png_get_uint_16
                0x0000000080033d6c                png_read_sig
                0x0000000080033ec4                png_read_chunk_header
                0x0000000080033f94                png_crc_read
                0x0000000080034000                png_crc_finish
                0x0000000080034174                png_crc_error
                0x0000000080034564                png_decompress_chunk
                0x00000000800348b4                png_handle_IHDR
                0x0000000080034ba8                png_handle_PLTE
                0x0000000080034ed0                png_handle_IEND
                0x0000000080034f8c                png_handle_gAMA
                0x00000000800351ec                png_handle_sBIT
                0x00000000800354b0                png_handle_cHRM
                0x0000000080035950                png_handle_sRGB
                0x0000000080035d3c                png_handle_iCCP
                0x0000000080036210                png_handle_sPLT
                0x00000000800368dc                png_handle_tRNS
                0x0000000080036ca8                png_handle_bKGD
                0x0000000080037120                png_handle_hIST
                0x0000000080037338                png_handle_pHYs
                0x0000000080037510                png_handle_oFFs
                0x0000000080037788                png_handle_pCAL
                0x0000000080037eec                png_handle_sCAL
                0x00000000800382f8                png_handle_tIME
                0x00000000800384a4                png_handle_tEXt
                0x0000000080038854                png_handle_zTXt
                0x0000000080038cc8                png_handle_iTXt
                0x00000000800392e8                png_handle_unknown
                0x0000000080039688                png_check_chunk_name
                0x000000008003987c                png_combine_row
                0x0000000080039fc0                png_do_read_interlace
                0x000000008003a9e0                png_read_filter_row
                0x000000008003af6c                png_read_finish_row
                0x000000008003b664                png_read_start_row
 .text          0x000000008003beb8     0x3254 /usr/local/xenon/usr/lib/libpng.a(libpng15_la-pngset.o)
                0x000000008003beb8                png_set_bKGD
                0x000000008003bf4c                png_set_cHRM_fixed
                0x000000008003c08c                png_set_cHRM
                0x000000008003c204                png_set_gAMA_fixed
                0x000000008003c2a8                png_set_gAMA
                0x000000008003c308                png_set_hIST
                0x000000008003c4c0                png_set_IHDR
                0x000000008003c7bc                png_set_oFFs
                0x000000008003c85c                png_set_pCAL
                0x000000008003cca0                png_set_sCAL_s
                0x000000008003cf74                png_set_sCAL
                0x000000008003d08c                png_set_sCAL_fixed
                0x000000008003d15c                png_set_pHYs
                0x000000008003d1fc                png_set_PLTE
                0x000000008003d390                png_set_sBIT
                0x000000008003d418                png_set_sRGB
                0x000000008003d490                png_set_sRGB_gAMA_and_cHRM
                0x000000008003d550                png_set_iCCP
                0x000000008003d72c                png_set_text
                0x000000008003d79c                png_set_text_2
                0x000000008003e038                png_set_tIME
                0x000000008003e0d8                png_set_tRNS
                0x000000008003e350                png_set_sPLT
                0x000000008003e6b0                png_set_unknown_chunks
                0x000000008003e9b0                png_set_unknown_chunk_location
                0x000000008003ea48                png_permit_mng_features
                0x000000008003eaac                png_set_keep_unknown_chunks
                0x000000008003ed64                png_set_read_user_chunk_fn
                0x000000008003edc0                png_set_rows
                0x000000008003ee90                png_set_compression_buffer_size
                0x000000008003ef58                png_set_invalid
                0x000000008003efbc                png_set_user_limits
                0x000000008003f018                png_set_chunk_cache_max
                0x000000008003f058                png_set_chunk_malloc_max
                0x000000008003f098                png_set_benign_errors
 .text          0x000000008003f10c     0x1328 /usr/local/xenon/usr/lib/libpng.a(libpng15_la-pngtrans.o)
                0x000000008003f10c                png_set_bgr
                0x000000008003f15c                png_set_swap
                0x000000008003f1c4                png_set_packing
                0x000000008003f23c                png_set_packswap
                0x000000008003f2a4                png_set_shift
                0x000000008003f318                png_set_interlace_handling
                0x000000008003f388                png_set_filler
                0x000000008003f4a8                png_set_add_alpha
                0x000000008003f520                png_set_swap_alpha
                0x000000008003f570                png_set_invert_alpha
                0x000000008003f5c0                png_set_invert_mono
                0x000000008003f610                png_do_invert
                0x000000008003f82c                png_do_swap
                0x000000008003f908                png_do_packswap
                0x000000008003fa30                png_do_strip_channel
                0x000000008003ff90                png_do_bgr
                0x00000000800402ec                png_set_user_transform_info
                0x0000000080040364                png_get_user_transform_ptr
                0x00000000800403a8                png_get_current_row_number
                0x00000000800403ec                png_get_current_pass_number
 .text          0x0000000080040434     0x270c /usr/local/xenon/usr/lib/libpng.a(libpng15_la-pngget.o)
                0x0000000080040434                png_get_valid
                0x0000000080040494                png_get_rowbytes
                0x00000000800404e8                png_get_rows
                0x000000008004053c                png_get_image_width
                0x0000000080040590                png_get_image_height
                0x00000000800405e4                png_get_bit_depth
                0x000000008004063c                png_get_color_type
                0x0000000080040694                png_get_filter_type
                0x00000000800406ec                png_get_interlace_type
                0x0000000080040744                png_get_compression_type
                0x000000008004079c                png_get_x_pixels_per_meter
                0x0000000080040820                png_get_y_pixels_per_meter
                0x00000000800408a4                png_get_pixels_per_meter
                0x0000000080040948                png_get_pixel_aspect_ratio
                0x0000000080040a4c                png_get_pixel_aspect_ratio_fixed
                0x0000000080040b54                png_get_x_offset_microns
                0x0000000080040bd8                png_get_y_offset_microns
                0x0000000080040c5c                png_get_x_offset_pixels
                0x0000000080040ce0                png_get_y_offset_pixels
                0x0000000080040dd8                png_get_pixels_per_inch
                0x0000000080040e2c                png_get_x_pixels_per_inch
                0x0000000080040e80                png_get_y_pixels_per_inch
                0x0000000080040f24                png_get_x_offset_inches_fixed
                0x0000000080040f7c                png_get_y_offset_inches_fixed
                0x0000000080040fd4                png_get_x_offset_inches
                0x0000000080041040                png_get_y_offset_inches
                0x00000000800410ac                png_get_pHYs_dpi
                0x0000000080041290                png_get_channels
                0x00000000800412e8                png_get_signature
                0x0000000080041338                png_get_bKGD
                0x00000000800413c0                png_get_cHRM
                0x000000008004165c                png_get_cHRM_fixed
                0x00000000800417f8                png_get_gAMA_fixed
                0x0000000080041888                png_get_gAMA
                0x000000008004191c                png_get_sRGB
                0x00000000800419b0                png_get_iCCP
                0x0000000080041ab0                png_get_sPLT
                0x0000000080041b2c                png_get_hIST
                0x0000000080041bb8                png_get_IHDR
                0x0000000080041de8                png_get_oFFs
                0x0000000080041ecc                png_get_pCAL
                0x0000000080042054                png_get_sCAL_fixed
                0x000000008004216c                png_get_sCAL
                0x0000000080042254                png_get_sCAL_s
                0x0000000080042314                png_get_pHYs
                0x000000008004241c                png_get_PLTE
                0x00000000800424cc                png_get_sBIT
                0x0000000080042554                png_get_text
                0x0000000080042628                png_get_tIME
                0x00000000800426b0                png_get_tRNS
                0x000000008004280c                png_get_unknown_chunks
                0x0000000080042888                png_get_rgb_to_gray_status
                0x00000000800428d0                png_get_user_chunk_ptr
                0x0000000080042914                png_get_compression_buffer_size
                0x0000000080042958                png_get_user_width_max
                0x000000008004299c                png_get_user_height_max
                0x00000000800429e0                png_get_chunk_cache_max
                0x0000000080042a24                png_get_chunk_malloc_max
                0x0000000080042a68                png_get_io_state
                0x0000000080042a98                png_get_io_chunk_type
                0x0000000080042b14                png_get_io_chunk_name
 .text          0x0000000080042b40     0x126c /usr/local/xenon/usr/lib/libz.a(crc32.o)
                0x0000000080042b40                get_crc_table
                0x0000000080042b68                crc32
                0x0000000080043d0c                crc32_combine
                0x0000000080043d5c                crc32_combine64
 .text          0x0000000080043dac     0x4c28 /usr/local/xenon/usr/lib/libz.a(inflate.o)
                0x0000000080043dac                inflateReset
                0x0000000080043f74                inflateReset2
                0x00000000800440f0                inflateInit2_
                0x00000000800442a4                inflateInit_
                0x00000000800442f8                inflatePrime
                0x00000000800447f4                inflate
                0x0000000080047cac                inflateEnd
                0x0000000080047dac                inflateSetDictionary
                0x0000000080047fc8                inflateGetHeader
                0x0000000080048174                inflateSync
                0x000000008004843c                inflateSyncPoint
                0x00000000800484cc                inflateCopy
                0x0000000080048874                inflateUndermine
                0x0000000080048904                inflateMark
 .text          0x00000000800489d4      0xb8c /usr/local/xenon/usr/lib/libz.a(inftrees.o)
                0x00000000800489d4                inflate_table
 .text          0x0000000080049560      0x16c /usr/local/xenon/usr/lib/libz.a(zutil.o)
                0x0000000080049560                zlibVersion
                0x0000000080049588                zlibCompileFlags
                0x00000000800495f4                zError
                0x0000000080049638                zcalloc
                0x000000008004968c                zcfree
 .text          0x00000000800496cc      0xbe4 /usr/local/xenon/usr/lib/libz.a(adler32.o)
                0x00000000800496cc                adler32
                0x000000008004a210                adler32_combine
                0x000000008004a260                adler32_combine64
 .text          0x000000008004a2b0      0xd24 /usr/local/xenon/usr/lib/libz.a(inffast.o)
                0x000000008004a2b0                inflate_fast
 *fill*         0x000000008004afd4        0x4 00
 .text._Znaj    0x000000008004afd8       0x30 /usr/local/xenon/lib/gcc/xenon/4.6.0/../../../../xenon/lib/../lib/libstdc++.a(new_opv.o)
                0x000000008004afd8                _Znaj
 .text._ZL12read_sleb128PKhPl
                0x000000008004b008       0x74 /usr/local/xenon/lib/gcc/xenon/4.6.0/../../../../xenon/lib/../lib/libstdc++.a(eh_personality.o)
 *fill*         0x000000008004b07c        0x4 00
 .text._ZL21base_of_encoded_valuehP15_Unwind_Context
                0x000000008004b080       0xb8 /usr/local/xenon/lib/gcc/xenon/4.6.0/../../../../xenon/lib/../lib/libstdc++.a(eh_personality.o)
 .text._ZL28read_encoded_value_with_basehjPKhPj
                0x000000008004b138      0x1e0 /usr/local/xenon/lib/gcc/xenon/4.6.0/../../../../xenon/lib/../lib/libstdc++.a(eh_personality.o)
 .text._ZL17parse_lsda_headerP15_Unwind_ContextPKhP16lsda_header_info.constprop.5
                0x000000008004b318      0x15c /usr/local/xenon/lib/gcc/xenon/4.6.0/../../../../xenon/lib/../lib/libstdc++.a(eh_personality.o)
 *fill*         0x000000008004b474        0x4 00
 .text._ZL15get_ttype_entryP16lsda_header_infom.constprop.6
                0x000000008004b478       0xe0 /usr/local/xenon/lib/gcc/xenon/4.6.0/../../../../xenon/lib/../lib/libstdc++.a(eh_personality.o)
 .text._ZL20check_exception_specP16lsda_header_infoPKSt9type_infoPvl.constprop.4
                0x000000008004b558      0x130 /usr/local/xenon/lib/gcc/xenon/4.6.0/../../../../xenon/lib/../lib/libstdc++.a(eh_personality.o)
 .text.__gxx_personality_v0
                0x000000008004b688      0x584 /usr/local/xenon/lib/gcc/xenon/4.6.0/../../../../xenon/lib/../lib/libstdc++.a(eh_personality.o)
                0x000000008004b68c                __gxx_personality_v0
 *fill*         0x000000008004bc0c        0x4 00
 .text.__cxa_call_unexpected
                0x000000008004bc10      0x104 /usr/local/xenon/lib/gcc/xenon/4.6.0/../../../../xenon/lib/../lib/libstdc++.a(eh_personality.o)
                0x000000008004bc14                __cxa_call_unexpected
 *fill*         0x000000008004bd14        0x4 00
 .text.__cxa_allocate_exception
                0x000000008004bd18       0xe8 /usr/local/xenon/lib/gcc/xenon/4.6.0/../../../../xenon/lib/../lib/libstdc++.a(eh_alloc.o)
                0x000000008004bd1c                __cxa_allocate_exception
 .text.__cxa_free_exception
                0x000000008004be00       0x8c /usr/local/xenon/lib/gcc/xenon/4.6.0/../../../../xenon/lib/../lib/libstdc++.a(eh_alloc.o)
                0x000000008004be04                __cxa_free_exception
 *fill*         0x000000008004be8c        0x4 00
 .text._ZNKSt9bad_alloc4whatEv
                0x000000008004be90       0x3c /usr/local/xenon/lib/gcc/xenon/4.6.0/../../../../xenon/lib/../lib/libstdc++.a(bad_alloc.o)
                0x000000008004be94                _ZNKSt9bad_alloc4whatEv
 *fill*         0x000000008004becc        0x4 00
 .text._ZNSt9bad_allocD2Ev
                0x000000008004bed0       0x44 /usr/local/xenon/lib/gcc/xenon/4.6.0/../../../../xenon/lib/../lib/libstdc++.a(bad_alloc.o)
                0x000000008004bed4                _ZNSt9bad_allocD2Ev
                0x000000008004bed4                _ZNSt9bad_allocD1Ev
 *fill*         0x000000008004bf14        0x4 00
 .text._ZNSt9bad_allocD0Ev
                0x000000008004bf18       0x34 /usr/local/xenon/lib/gcc/xenon/4.6.0/../../../../xenon/lib/../lib/libstdc++.a(bad_alloc.o)
                0x000000008004bf18                _ZNSt9bad_allocD0Ev
 *fill*         0x000000008004bf4c        0x4 00
 .text._ZdlPv   0x000000008004bf50       0x28 /usr/local/xenon/lib/gcc/xenon/4.6.0/../../../../xenon/lib/../lib/libstdc++.a(del_op.o)
                0x000000008004bf50                _ZdlPv
 .text.__cxa_begin_catch
                0x000000008004bf78       0xcc /usr/local/xenon/lib/gcc/xenon/4.6.0/../../../../xenon/lib/../lib/libstdc++.a(eh_catch.o)
                0x000000008004bf78                __cxa_begin_catch
 *fill*         0x000000008004c044        0x4 00
 .text.__cxa_end_catch
                0x000000008004c048       0xd0 /usr/local/xenon/lib/gcc/xenon/4.6.0/../../../../xenon/lib/../lib/libstdc++.a(eh_catch.o)
                0x000000008004c048                __cxa_end_catch
 .text._Znwj    0x000000008004c118       0xcc /usr/local/xenon/lib/gcc/xenon/4.6.0/../../../../xenon/lib/../lib/libstdc++.a(new_op.o)
                0x000000008004c11c                _Znwj
 *fill*         0x000000008004c1e4        0x4 00
 .text._ZN10__cxxabiv111__terminateEPFvvE
                0x000000008004c1e8       0x44 /usr/local/xenon/lib/gcc/xenon/4.6.0/../../../../xenon/lib/../lib/libstdc++.a(eh_terminate.o)
                0x000000008004c1e8                _ZN10__cxxabiv111__terminateEPFvvE
 *fill*         0x000000008004c22c        0x4 00
 .text._ZSt9terminatev
                0x000000008004c230       0x30 /usr/local/xenon/lib/gcc/xenon/4.6.0/../../../../xenon/lib/../lib/libstdc++.a(eh_terminate.o)
                0x000000008004c234                _ZSt9terminatev
 .text._ZN10__cxxabiv112__unexpectedEPFvvE
                0x000000008004c260       0x18 /usr/local/xenon/lib/gcc/xenon/4.6.0/../../../../xenon/lib/../lib/libstdc++.a(eh_terminate.o)
                0x000000008004c260                _ZN10__cxxabiv112__unexpectedEPFvvE
 .text._ZSt10unexpectedv
                0x000000008004c278       0x30 /usr/local/xenon/lib/gcc/xenon/4.6.0/../../../../xenon/lib/../lib/libstdc++.a(eh_terminate.o)
                0x000000008004c27c                _ZSt10unexpectedv
 .text._ZNSt9exceptionD2Ev
                0x000000008004c2a8       0x40 /usr/local/xenon/lib/gcc/xenon/4.6.0/../../../../xenon/lib/../lib/libstdc++.a(eh_exception.o)
                0x000000008004c2ac                _ZNSt9exceptionD2Ev
                0x000000008004c2ac                _ZNSt9exceptionD1Ev
 .text._ZNSt13bad_exceptionD2Ev
                0x000000008004c2e8       0x44 /usr/local/xenon/lib/gcc/xenon/4.6.0/../../../../xenon/lib/../lib/libstdc++.a(eh_exception.o)
                0x000000008004c2ec                _ZNSt13bad_exceptionD2Ev
                0x000000008004c2ec                _ZNSt13bad_exceptionD1Ev
 *fill*         0x000000008004c32c        0x4 00
 .text._ZN10__cxxabiv115__forced_unwindD2Ev
                0x000000008004c330       0x40 /usr/local/xenon/lib/gcc/xenon/4.6.0/../../../../xenon/lib/../lib/libstdc++.a(eh_exception.o)
                0x000000008004c334                _ZN10__cxxabiv115__forced_unwindD1Ev
                0x000000008004c334                _ZN10__cxxabiv115__forced_unwindD2Ev
 .text._ZN10__cxxabiv119__foreign_exceptionD2Ev
                0x000000008004c370       0x40 /usr/local/xenon/lib/gcc/xenon/4.6.0/../../../../xenon/lib/../lib/libstdc++.a(eh_exception.o)
                0x000000008004c374                _ZN10__cxxabiv119__foreign_exceptionD2Ev
                0x000000008004c374                _ZN10__cxxabiv119__foreign_exceptionD1Ev
 .text._ZNKSt9exception4whatEv
                0x000000008004c3b0       0x3c /usr/local/xenon/lib/gcc/xenon/4.6.0/../../../../xenon/lib/../lib/libstdc++.a(eh_exception.o)
                0x000000008004c3b4                _ZNKSt9exception4whatEv
 *fill*         0x000000008004c3ec        0x4 00
 .text._ZNKSt13bad_exception4whatEv
                0x000000008004c3f0       0x3c /usr/local/xenon/lib/gcc/xenon/4.6.0/../../../../xenon/lib/../lib/libstdc++.a(eh_exception.o)
                0x000000008004c3f4                _ZNKSt13bad_exception4whatEv
 *fill*         0x000000008004c42c        0x4 00
 .text._ZN10__cxxabiv119__foreign_exceptionD0Ev
                0x000000008004c430       0x34 /usr/local/xenon/lib/gcc/xenon/4.6.0/../../../../xenon/lib/../lib/libstdc++.a(eh_exception.o)
                0x000000008004c430                _ZN10__cxxabiv119__foreign_exceptionD0Ev
 *fill*         0x000000008004c464        0x4 00
 .text._ZN10__cxxabiv115__forced_unwindD0Ev
                0x000000008004c468       0x34 /usr/local/xenon/lib/gcc/xenon/4.6.0/../../../../xenon/lib/../lib/libstdc++.a(eh_exception.o)
                0x000000008004c468                _ZN10__cxxabiv115__forced_unwindD0Ev
 *fill*         0x000000008004c49c        0x4 00
 .text._ZNSt13bad_exceptionD0Ev
                0x000000008004c4a0       0x34 /usr/local/xenon/lib/gcc/xenon/4.6.0/../../../../xenon/lib/../lib/libstdc++.a(eh_exception.o)
                0x000000008004c4a0                _ZNSt13bad_exceptionD0Ev
 *fill*         0x000000008004c4d4        0x4 00
 .text._ZNSt9exceptionD0Ev
                0x000000008004c4d8       0x34 /usr/local/xenon/lib/gcc/xenon/4.6.0/../../../../xenon/lib/../lib/libstdc++.a(eh_exception.o)
                0x000000008004c4d8                _ZNSt9exceptionD0Ev
 *fill*         0x000000008004c50c        0x4 00
 .text.__cxa_call_terminate
                0x000000008004c510       0x60 /usr/local/xenon/lib/gcc/xenon/4.6.0/../../../../xenon/lib/../lib/libstdc++.a(eh_call.o)
                0x000000008004c510                __cxa_call_terminate
 .text.__cxa_get_globals_fast
                0x000000008004c570       0x3c /usr/local/xenon/lib/gcc/xenon/4.6.0/../../../../xenon/lib/../lib/libstdc++.a(eh_globals.o)
                0x000000008004c574                __cxa_get_globals_fast
 *fill*         0x000000008004c5ac        0x4 00
 .text.__cxa_get_globals
                0x000000008004c5b0       0x3c /usr/local/xenon/lib/gcc/xenon/4.6.0/../../../../xenon/lib/../lib/libstdc++.a(eh_globals.o)
                0x000000008004c5b4                __cxa_get_globals
 *fill*         0x000000008004c5ec        0x4 00
 .text._ZNK10__cxxabiv117__class_type_info11__do_upcastEPKS0_PPv
                0x000000008004c5f0       0x78 /usr/local/xenon/lib/gcc/xenon/4.6.0/../../../../xenon/lib/../lib/libstdc++.a(class_type_info.o)
                0x000000008004c5f0                _ZNK10__cxxabiv117__class_type_info11__do_upcastEPKS0_PPv
 .text._ZNK10__cxxabiv117__class_type_info20__do_find_public_srcEiPKvPKS0_S2_
                0x000000008004c668       0x14 /usr/local/xenon/lib/gcc/xenon/4.6.0/../../../../xenon/lib/../lib/libstdc++.a(class_type_info.o)
                0x000000008004c668                _ZNK10__cxxabiv117__class_type_info20__do_find_public_srcEiPKvPKS0_S2_
 *fill*         0x000000008004c67c        0x4 00
 .text._ZN10__cxxabiv117__class_type_infoD2Ev
                0x000000008004c680       0x44 /usr/local/xenon/lib/gcc/xenon/4.6.0/../../../../xenon/lib/../lib/libstdc++.a(class_type_info.o)
                0x000000008004c684                _ZN10__cxxabiv117__class_type_infoD1Ev
                0x000000008004c684                _ZN10__cxxabiv117__class_type_infoD2Ev
 *fill*         0x000000008004c6c4        0x4 00
 .text._ZN10__cxxabiv117__class_type_infoD0Ev
                0x000000008004c6c8       0x34 /usr/local/xenon/lib/gcc/xenon/4.6.0/../../../../xenon/lib/../lib/libstdc++.a(class_type_info.o)
                0x000000008004c6c8                _ZN10__cxxabiv117__class_type_infoD0Ev
 *fill*         0x000000008004c6fc        0x4 00
 .text._ZNK10__cxxabiv117__class_type_info11__do_upcastEPKS0_PKvRNS0_15__upcast_resultE
                0x000000008004c700       0xb4 /usr/local/xenon/lib/gcc/xenon/4.6.0/../../../../xenon/lib/../lib/libstdc++.a(class_type_info.o)
                0x000000008004c700                _ZNK10__cxxabiv117__class_type_info11__do_upcastEPKS0_PKvRNS0_15__upcast_resultE
 *fill*         0x000000008004c7b4        0x4 00
 .text._ZNK10__cxxabiv117__class_type_info10__do_catchEPKSt9type_infoPPvj
                0x000000008004c7b8       0xe4 /usr/local/xenon/lib/gcc/xenon/4.6.0/../../../../xenon/lib/../lib/libstdc++.a(class_type_info.o)
                0x000000008004c7b8                _ZNK10__cxxabiv117__class_type_info10__do_catchEPKSt9type_infoPPvj
 *fill*         0x000000008004c89c        0x4 00
 .text._ZNK10__cxxabiv117__class_type_info12__do_dyncastEiNS0_10__sub_kindEPKS0_PKvS3_S5_RNS0_16__dyncast_resultE
                0x000000008004c8a0       0xe0 /usr/local/xenon/lib/gcc/xenon/4.6.0/../../../../xenon/lib/../lib/libstdc++.a(class_type_info.o)
                0x000000008004c8a0                _ZNK10__cxxabiv117__class_type_info12__do_dyncastEiNS0_10__sub_kindEPKS0_PKvS3_S5_RNS0_16__dyncast_resultE
 .text._ZN10__cxxabiv120__si_class_type_infoD2Ev
                0x000000008004c980       0x44 /usr/local/xenon/lib/gcc/xenon/4.6.0/../../../../xenon/lib/../lib/libstdc++.a(si_class_type_info.o)
                0x000000008004c984                _ZN10__cxxabiv120__si_class_type_infoD2Ev
                0x000000008004c984                _ZN10__cxxabiv120__si_class_type_infoD1Ev
 *fill*         0x000000008004c9c4        0x4 00
 .text._ZN10__cxxabiv120__si_class_type_infoD0Ev
                0x000000008004c9c8       0x34 /usr/local/xenon/lib/gcc/xenon/4.6.0/../../../../xenon/lib/../lib/libstdc++.a(si_class_type_info.o)
                0x000000008004c9c8                _ZN10__cxxabiv120__si_class_type_infoD0Ev
 *fill*         0x000000008004c9fc        0x4 00
 .text._ZNK10__cxxabiv120__si_class_type_info11__do_upcastEPKNS_17__class_type_infoEPKvRNS1_15__upcast_resultE
                0x000000008004ca00       0x88 /usr/local/xenon/lib/gcc/xenon/4.6.0/../../../../xenon/lib/../lib/libstdc++.a(si_class_type_info.o)
                0x000000008004ca00                _ZNK10__cxxabiv120__si_class_type_info11__do_upcastEPKNS_17__class_type_infoEPKvRNS1_15__upcast_resultE
 .text._ZNK10__cxxabiv120__si_class_type_info12__do_dyncastEiNS_17__class_type_info10__sub_kindEPKS1_PKvS4_S6_RNS1_16__dyncast_resultE
                0x000000008004ca88      0x1a8 /usr/local/xenon/lib/gcc/xenon/4.6.0/../../../../xenon/lib/../lib/libstdc++.a(si_class_type_info.o)
                0x000000008004ca88                _ZNK10__cxxabiv120__si_class_type_info12__do_dyncastEiNS_17__class_type_info10__sub_kindEPKS1_PKvS4_S6_RNS1_16__dyncast_resultE
 .text._ZNK10__cxxabiv120__si_class_type_info20__do_find_public_srcEiPKvPKNS_17__class_type_infoES2_
                0x000000008004cc30       0xb8 /usr/local/xenon/lib/gcc/xenon/4.6.0/../../../../xenon/lib/../lib/libstdc++.a(si_class_type_info.o)
                0x000000008004cc30                _ZNK10__cxxabiv120__si_class_type_info20__do_find_public_srcEiPKvPKNS_17__class_type_infoES2_
 .text._ZNSt9type_infoD2Ev
                0x000000008004cce8       0x40 /usr/local/xenon/lib/gcc/xenon/4.6.0/../../../../xenon/lib/../lib/libstdc++.a(tinfo.o)
                0x000000008004ccec                _ZNSt9type_infoD1Ev
                0x000000008004ccec                _ZNSt9type_infoD2Ev
 .text._ZNKSt9type_info14__is_pointer_pEv
                0x000000008004cd28        0x8 /usr/local/xenon/lib/gcc/xenon/4.6.0/../../../../xenon/lib/../lib/libstdc++.a(tinfo.o)
                0x000000008004cd28                _ZNKSt9type_info14__is_pointer_pEv
 .text._ZNKSt9type_info15__is_function_pEv
                0x000000008004cd30        0x8 /usr/local/xenon/lib/gcc/xenon/4.6.0/../../../../xenon/lib/../lib/libstdc++.a(tinfo.o)
                0x000000008004cd30                _ZNKSt9type_info15__is_function_pEv
 .text._ZNKSt9type_info11__do_upcastEPKN10__cxxabiv117__class_type_infoEPPv
                0x000000008004cd38        0x8 /usr/local/xenon/lib/gcc/xenon/4.6.0/../../../../xenon/lib/../lib/libstdc++.a(tinfo.o)
                0x000000008004cd38                _ZNKSt9type_info11__do_upcastEPKN10__cxxabiv117__class_type_infoEPPv
 .text._ZNKSt9type_info10__do_catchEPKS_PPvj
                0x000000008004cd40       0x50 /usr/local/xenon/lib/gcc/xenon/4.6.0/../../../../xenon/lib/../lib/libstdc++.a(tinfo.o)
                0x000000008004cd40                _ZNKSt9type_info10__do_catchEPKS_PPvj
 .text._ZNSt9type_infoD0Ev
                0x000000008004cd90       0x34 /usr/local/xenon/lib/gcc/xenon/4.6.0/../../../../xenon/lib/../lib/libstdc++.a(tinfo.o)
                0x000000008004cd90                _ZNSt9type_infoD0Ev
 *fill*         0x000000008004cdc4        0x4 00
 .text._ZL23__gxx_exception_cleanup19_Unwind_Reason_CodeP17_Unwind_Exception
                0x000000008004cdc8       0x80 /usr/local/xenon/lib/gcc/xenon/4.6.0/../../../../xenon/lib/../lib/libstdc++.a(eh_throw.o)
 .text.__cxa_throw
                0x000000008004ce48       0x8c /usr/local/xenon/lib/gcc/xenon/4.6.0/../../../../xenon/lib/../lib/libstdc++.a(eh_throw.o)
                0x000000008004ce4c                __cxa_throw
 *fill*         0x000000008004ced4        0x4 00
 .text.__cxa_rethrow
                0x000000008004ced8       0x8c /usr/local/xenon/lib/gcc/xenon/4.6.0/../../../../xenon/lib/../lib/libstdc++.a(eh_throw.o)
                0x000000008004ced8                __cxa_rethrow
 *fill*         0x000000008004cf64        0x4 00
 .text.__cxa_pure_virtual
                0x000000008004cf68       0x38 /usr/local/xenon/lib/gcc/xenon/4.6.0/../../../../xenon/lib/../lib/libstdc++.a(pure.o)
                0x000000008004cf6c                __cxa_pure_virtual
 .text._ZN9__gnu_cxx27__verbose_terminate_handlerEv
                0x000000008004cfa0      0x1f0 /usr/local/xenon/lib/gcc/xenon/4.6.0/../../../../xenon/lib/../lib/libstdc++.a(vterminate.o)
                0x000000008004cfa4                _ZN9__gnu_cxx27__verbose_terminate_handlerEv
 .text          0x000000008004d190     0x7c58 /usr/local/xenon/lib/gcc/xenon/4.6.0/../../../../xenon/lib/../lib/libstdc++.a(cp-demangle.o)
                0x0000000080054bcc                __cxa_demangle
                0x0000000080054d98                __gcclibcxx_demangle_callback
 .text.__cxa_current_exception_type
                0x0000000080054de8       0x54 /usr/local/xenon/lib/gcc/xenon/4.6.0/../../../../xenon/lib/../lib/libstdc++.a(eh_type.o)
                0x0000000080054de8                __cxa_current_exception_type
 *fill*         0x0000000080054e3c        0x4 00
 .text          0x0000000080054e40      0x1d4 /usr/local/xenon/xenon/lib/32/libm.a(lib_a-s_floor.o)
                0x0000000080054e44                floor
 *fill*         0x0000000080055014        0x4 00
 .text          0x0000000080055018       0xd4 /usr/local/xenon/xenon/lib/32/libm.a(lib_a-s_frexp.o)
                0x000000008005501c                frexp
 *fill*         0x00000000800550ec        0x4 00
 .text          0x00000000800550f0       0xec /usr/local/xenon/xenon/lib/32/libm.a(lib_a-s_modf.o)
                0x00000000800550f0                modf
 *fill*         0x00000000800551dc        0x4 00
 .text          0x00000000800551e0       0xb0 /usr/local/xenon/xenon/lib/32/libm.a(lib_a-s_trunc.o)
                0x00000000800551e0                trunc
 .text          0x0000000080055290      0x438 /usr/local/xenon/xenon/lib/32/libm.a(lib_a-w_pow.o)
                0x0000000080055294                pow
 .text          0x00000000800556c8      0x924 /usr/local/xenon/xenon/lib/32/libm.a(lib_a-e_pow.o)
                0x00000000800556cc                __ieee754_pow
 *fill*         0x0000000080055fec        0x4 00
 .text          0x0000000080055ff0      0x2b8 /usr/local/xenon/xenon/lib/32/libm.a(lib_a-e_sqrt.o)
                0x0000000080055ff0                __ieee754_sqrt
 .text          0x00000000800562a8       0x28 /usr/local/xenon/xenon/lib/32/libm.a(lib_a-s_fabs.o)
                0x00000000800562a8                fabs
 .text          0x00000000800562d0       0x20 /usr/local/xenon/xenon/lib/32/libm.a(lib_a-s_finite.o)
                0x00000000800562d0                finite
 .text          0x00000000800562f0       0x38 /usr/local/xenon/xenon/lib/32/libm.a(lib_a-s_isnand.o)
                0x00000000800562f0                __isnand
 .text          0x0000000080056328        0x8 /usr/local/xenon/xenon/lib/32/libm.a(lib_a-s_matherr.o)
                0x0000000080056328                matherr
 .text          0x0000000080056330       0x20 /usr/local/xenon/xenon/lib/32/libm.a(lib_a-s_nan.o)
                0x0000000080056330                nan
 .text          0x0000000080056350      0x1d8 /usr/local/xenon/xenon/lib/32/libm.a(lib_a-s_rint.o)
                0x0000000080056354                rint
 .text          0x0000000080056528      0x1cc /usr/local/xenon/xenon/lib/32/libm.a(lib_a-s_scalbn.o)
                0x000000008005652c                scalbn
 *fill*         0x00000000800566f4        0x4 00
 .text          0x00000000800566f8       0x3c /usr/local/xenon/xenon/lib/32/libm.a(lib_a-s_copysign.o)
                0x00000000800566f8                copysign
 .text          0x0000000080056734       0x4c /usr/local/xenon/lib/gcc/xenon/4.6.0/32/libgcc.a(crtsavgpr.o)
                0x0000000080056734                _savegpr_14
                0x0000000080056738                _savegpr_15
                0x000000008005673c                _savegpr_16
                0x0000000080056740                _savegpr_17
                0x0000000080056744                _savegpr_18
                0x0000000080056748                _savegpr_19
                0x000000008005674c                _savegpr_20
                0x0000000080056750                _savegpr_21
                0x0000000080056754                _savegpr_22
                0x0000000080056758                _savegpr_23
                0x000000008005675c                _savegpr_24
                0x0000000080056760                _savegpr_25
                0x0000000080056764                _savegpr_26
                0x0000000080056768                _savegpr_27
                0x000000008005676c                _savegpr_28
                0x0000000080056770                _savegpr_29
                0x0000000080056774                _savegpr_30
                0x0000000080056778                _savegpr_31
 .text          0x0000000080056780       0x58 /usr/local/xenon/lib/gcc/xenon/4.6.0/32/libgcc.a(crtresxgpr.o)
                0x0000000080056780                _restgpr_14_x
                0x0000000080056784                _restgpr_15_x
                0x0000000080056788                _restgpr_16_x
                0x000000008005678c                _restgpr_17_x
                0x0000000080056790                _restgpr_18_x
                0x0000000080056794                _restgpr_19_x
                0x0000000080056798                _restgpr_20_x
                0x000000008005679c                _restgpr_21_x
                0x00000000800567a0                _restgpr_22_x
                0x00000000800567a4                _restgpr_23_x
                0x00000000800567a8                _restgpr_24_x
                0x00000000800567ac                _restgpr_25_x
                0x00000000800567b0                _restgpr_26_x
                0x00000000800567b4                _restgpr_27_x
                0x00000000800567b8                _restgpr_28_x
                0x00000000800567bc                _restgpr_29_x
                0x00000000800567c0                _restgpr_30_x
                0x00000000800567c4                _restgpr_31_x
 .text          0x00000000800567d8     0x3d10 /usr/local/xenon/lib/gcc/xenon/4.6.0/32/libgcc.a(unwind-dw2.o)
                0x0000000080056c64                _Unwind_GetGR
                0x0000000080056cf0                _Unwind_GetCFA
                0x0000000080056cfc                _Unwind_SetGR
                0x0000000080056da8                _Unwind_GetIP
                0x0000000080056db0                _Unwind_GetIPInfo
                0x0000000080056dc8                _Unwind_SetIP
                0x0000000080056dd0                _Unwind_GetLanguageSpecificData
                0x0000000080056dd8                _Unwind_GetRegionStart
                0x0000000080056de0                _Unwind_FindEnclosingFunction
                0x0000000080056e18                _Unwind_GetDataRelBase
                0x0000000080056e20                _Unwind_GetTextRelBase
                0x00000000800594f8                __frame_state_for
                0x0000000080059628                _Unwind_RaiseException
                0x0000000080059990                _Unwind_ForcedUnwind
                0x0000000080059c60                _Unwind_Resume
                0x0000000080059f30                _Unwind_Resume_or_Rethrow
                0x000000008005a208                _Unwind_DeleteException
                0x000000008005a240                _Unwind_Backtrace
 .text          0x000000008005a4e8     0x1ab8 /usr/local/xenon/lib/gcc/xenon/4.6.0/32/libgcc.a(unwind-dw2-fde-glibc.o)
                0x000000008005ba3c                __register_frame_info_bases
                0x000000008005bab0                __register_frame_info
                0x000000008005bad8                __register_frame
                0x000000008005bb24                __register_frame_info_table_bases
                0x000000008005bb88                __register_frame_info_table
                0x000000008005bbb0                __register_frame_table
                0x000000008005bbf4                __deregister_frame_info_bases
                0x000000008005bd40                __deregister_frame_info
                0x000000008005bd60                __deregister_frame
                0x000000008005bd94                _Unwind_Find_FDE
 .text          0x000000008005bfa0       0x1c /usr/local/xenon/xenon/lib/32/libc.a(lib_a-abort.o)
                0x000000008005bfa0                abort
 *fill*         0x000000008005bfbc        0x4 00
 .text          0x000000008005bfc0       0x88 /usr/local/xenon/xenon/lib/32/libc.a(lib_a-assert.o)
                0x000000008005bfc4                __assert_func
                0x000000008005c030                __assert
 .text          0x000000008005c048       0x24 /usr/local/xenon/xenon/lib/32/libc.a(lib_a-atof.o)
                0x000000008005c048                atof
 *fill*         0x000000008005c06c        0x4 00
 .text          0x000000008005c070       0x50 /usr/local/xenon/xenon/lib/32/libc.a(lib_a-atoi.o)
                0x000000008005c070                atoi
                0x000000008005c098                _atoi_r
 .text          0x000000008005c0c0       0x40 /usr/local/xenon/xenon/lib/32/libc.a(lib_a-errno.o)
                0x000000008005c0c4                __errno
 .text          0x000000008005c100       0x58 /usr/local/xenon/xenon/lib/32/libc.a(lib_a-exit.o)
                0x000000008005c104                exit
 .text          0x000000008005c158      0x1c0 /usr/local/xenon/xenon/lib/32/libc.a(lib_a-fclose.o)
                0x000000008005c158                _fclose_r
                0x000000008005c2d4                fclose
 .text          0x000000008005c318      0x334 /usr/local/xenon/xenon/lib/32/libc.a(lib_a-fflush.o)
                0x000000008005c318                _fflush_r
                0x000000008005c5dc                fflush
 *fill*         0x000000008005c64c        0x4 00
 .text          0x000000008005c650      0x47c /usr/local/xenon/xenon/lib/32/libc.a(lib_a-findfp.o)
                0x000000008005c664                _cleanup_r
                0x000000008005c740                __sfmoreglue
                0x000000008005c7c4                _cleanup
                0x000000008005c808                __sfp_lock_acquire
                0x000000008005c810                __sfp_lock_release
                0x000000008005c818                __sinit_lock_acquire
                0x000000008005c820                __sinit_lock_release
                0x000000008005c82c                __sinit
                0x000000008005c8dc                __sfp
                0x000000008005ca34                __fp_lock_all
                0x000000008005ca84                __fp_unlock_all
 *fill*         0x000000008005cacc        0x4 00
 .text          0x000000008005cad0      0x130 /usr/local/xenon/xenon/lib/32/libc.a(lib_a-fiprintf.o)
                0x000000008005cad0                _fiprintf_r
                0x000000008005cb54                fiprintf
 .text          0x000000008005cc00      0x194 /usr/local/xenon/xenon/lib/32/libc.a(lib_a-fopen.o)
                0x000000008005cc04                _fopen_r
                0x000000008005cd4c                fopen
 *fill*         0x000000008005cd94        0x4 00
 .text          0x000000008005cd98      0x130 /usr/local/xenon/xenon/lib/32/libc.a(lib_a-fprintf.o)
                0x000000008005cd98                _fprintf_r
                0x000000008005ce1c                fprintf
 .text          0x000000008005cec8       0xdc /usr/local/xenon/xenon/lib/32/libc.a(lib_a-fputc.o)
                0x000000008005cec8                _fputc_r
                0x000000008005cf24                fputc
 *fill*         0x000000008005cfa4        0x4 00
 .text          0x000000008005cfa8      0x10c /usr/local/xenon/xenon/lib/32/libc.a(lib_a-fputs.o)
                0x000000008005cfa8                _fputs_r
                0x000000008005d06c                fputs
 *fill*         0x000000008005d0b4        0x4 00
 .text          0x000000008005d0b8      0x308 /usr/local/xenon/xenon/lib/32/libc.a(lib_a-fread.o)
                0x000000008005d0b8                _fread_r
                0x000000008005d364                fread
 .text          0x000000008005d3c0      0x418 /usr/local/xenon/xenon/lib/32/libc.a(lib_a-freer.o)
                0x000000008005d3c4                _malloc_trim_r
                0x000000008005d51c                _free_r
 .text          0x000000008005d7d8      0x5e4 /usr/local/xenon/xenon/lib/32/libc.a(lib_a-fseek.o)
                0x000000008005d7dc                _fseek_r
                0x000000008005dd6c                fseek
 *fill*         0x000000008005ddbc        0x4 00
 .text          0x000000008005ddc0       0x9c /usr/local/xenon/xenon/lib/32/libc.a(lib_a-fstatr.o)
                0x000000008005ddc4                _fstat_r
 *fill*         0x000000008005de5c        0x4 00
 .text          0x000000008005de60      0x190 /usr/local/xenon/xenon/lib/32/libc.a(lib_a-ftell.o)
                0x000000008005de60                _ftell_r
                0x000000008005dfac                ftell
 .text          0x000000008005dff0      0x57c /usr/local/xenon/xenon/lib/32/libc.a(lib_a-fvwrite.o)
                0x000000008005dff0                __sfvwrite_r
 *fill*         0x000000008005e56c        0x4 00
 .text          0x000000008005e570      0x19c /usr/local/xenon/xenon/lib/32/libc.a(lib_a-fwalk.o)
                0x000000008005e570                _fwalk
                0x000000008005e638                _fwalk_reent
 *fill*         0x000000008005e70c        0x4 00
 .text          0x000000008005e710      0x148 /usr/local/xenon/xenon/lib/32/libc.a(lib_a-fwrite.o)
                0x000000008005e710                _fwrite_r
                0x000000008005e7fc                fwrite
 .text          0x000000008005e858      0x220 /usr/local/xenon/xenon/lib/32/libc.a(lib_a-makebuf.o)
                0x000000008005e85c                __smakebuf_r
 .text          0x000000008005ea78       0x4c /usr/local/xenon/xenon/lib/32/libc.a(lib_a-malign.o)
                0x000000008005ea7c                memalign
 *fill*         0x000000008005eac4        0x4 00
 .text          0x000000008005eac8      0x21c /usr/local/xenon/xenon/lib/32/libc.a(lib_a-malignr.o)
                0x000000008005eac8                _memalign_r
 *fill*         0x000000008005ece4        0x4 00
 .text          0x000000008005ece8       0x90 /usr/local/xenon/xenon/lib/32/libc.a(lib_a-malloc.o)
                0x000000008005ecec                malloc
                0x000000008005ed34                free
 .text          0x000000008005ed78      0x890 /usr/local/xenon/xenon/lib/32/libc.a(lib_a-mallocr.o)
                0x000000008005ed7c                _malloc_r
 .text          0x000000008005f608      0x130 /usr/local/xenon/xenon/lib/32/libc.a(lib_a-memchr.o)
                0x000000008005f608                memchr
 .text          0x000000008005f738       0xe0 /usr/local/xenon/xenon/lib/32/libc.a(lib_a-memcmp.o)
                0x000000008005f738                memcmp
 .text          0x000000008005f818      0x128 /usr/local/xenon/xenon/lib/32/libc.a(lib_a-memcpy.o)
                0x000000008005f818                memcpy
 .text          0x000000008005f940      0x198 /usr/local/xenon/xenon/lib/32/libc.a(lib_a-memmove.o)
                0x000000008005f940                memmove
 .text          0x000000008005fad8      0x134 /usr/local/xenon/xenon/lib/32/libc.a(lib_a-memset.o)
                0x000000008005fad8                memset
 *fill*         0x000000008005fc0c        0x4 00
 .text          0x000000008005fc10        0xc /usr/local/xenon/xenon/lib/32/libc.a(lib_a-mlock.o)
                0x000000008005fc10                __malloc_lock
                0x000000008005fc18                __malloc_unlock
 *fill*         0x000000008005fc1c        0x4 00
 .text          0x000000008005fc20       0xa4 /usr/local/xenon/xenon/lib/32/libc.a(lib_a-openr.o)
                0x000000008005fc24                _open_r
 *fill*         0x000000008005fcc4        0x4 00
 .text          0x000000008005fcc8      0x138 /usr/local/xenon/xenon/lib/32/libc.a(lib_a-printf.o)
                0x000000008005fcc8                _printf_r
                0x000000008005fd54                printf
 .text          0x000000008005fe00       0x74 /usr/local/xenon/xenon/lib/32/libc.a(lib_a-putchar.o)
                0x000000008005fe00                _putchar_r
                0x000000008005fe2c                putchar
 *fill*         0x000000008005fe74        0x4 00
 .text          0x000000008005fe78      0x204 /usr/local/xenon/xenon/lib/32/libc.a(lib_a-putc.o)
                0x000000008005fe78                _putc_r
                0x000000008005ff5c                putc
 *fill*         0x000000008006007c        0x4 00
 .text          0x0000000080060080      0x128 /usr/local/xenon/xenon/lib/32/libc.a(lib_a-puts.o)
                0x0000000080060084                _puts_r
                0x0000000080060164                puts
 .text          0x00000000800601a8       0xd4 /usr/local/xenon/xenon/lib/32/libc.a(lib_a-rand.o)
                0x00000000800601ac                srand
                0x00000000800601fc                rand
 *fill*         0x000000008006027c        0x4 00
 .text          0x0000000080060280       0x4c /usr/local/xenon/xenon/lib/32/libc.a(lib_a-realloc.o)
                0x0000000080060284                realloc
 *fill*         0x00000000800602cc        0x4 00
 .text          0x00000000800602d0      0x630 /usr/local/xenon/xenon/lib/32/libc.a(lib_a-reallocr.o)
                0x00000000800602d4                _realloc_r
 .text          0x0000000080060900      0x2bc /usr/local/xenon/xenon/lib/32/libc.a(lib_a-refill.o)
                0x000000008006095c                __srefill_r
 *fill*         0x0000000080060bbc        0x4 00
 .text          0x0000000080060bc0       0x94 /usr/local/xenon/xenon/lib/32/libc.a(lib_a-sbrkr.o)
                0x0000000080060bc4                _sbrk_r
 .text          0x0000000080060c54      0x250 /usr/local/xenon/xenon/lib/32/libc.a(lib_a-setjmp.o)
                0x0000000080060c54                setjmp
                0x0000000080060d78                longjmp
 *fill*         0x0000000080060ea4        0x4 00
 .text          0x0000000080060ea8      0x408 /usr/local/xenon/xenon/lib/32/libc.a(lib_a-signal.o)
                0x0000000080060ea8                _init_signal_r
                0x0000000080060f48                _signal_r
                0x0000000080060fd8                _raise_r
                0x00000000800610c8                __sigtramp_r
                0x000000008006118c                raise
                0x00000000800611d4                signal
                0x0000000080061224                _init_signal
                0x000000008006126c                __sigtramp
 .text          0x00000000800612b0       0xc0 /usr/local/xenon/xenon/lib/32/libc.a(lib_a-signalr.o)
                0x00000000800612b4                _kill_r
                0x0000000080061350                _getpid_r
 .text          0x0000000080061370      0x240 /usr/local/xenon/xenon/lib/32/libc.a(lib_a-snprintf.o)
                0x0000000080061370                _snprintf_r
                0x0000000080061484                snprintf
 .text          0x00000000800615b0      0x1a8 /usr/local/xenon/xenon/lib/32/libc.a(lib_a-sprintf.o)
                0x00000000800615b0                _sprintf_r
                0x0000000080061674                sprintf
 .text          0x0000000080061758      0x1a8 /usr/local/xenon/xenon/lib/32/libc.a(lib_a-stdio.o)
                0x0000000080061758                __sread
                0x00000000800617c0                __swrite
                0x0000000080061868                __sseek
                0x00000000800618d8                __sclose
 .text          0x0000000080061900      0x108 /usr/local/xenon/xenon/lib/32/libc.a(lib_a-strcasecmp.o)
                0x0000000080061904                strcasecmp
 .text          0x0000000080061a08       0xb0 /usr/local/xenon/xenon/lib/32/libc.a(lib_a-strcat.o)
                0x0000000080061a08                strcat
 .text          0x0000000080061ab8      0x238 /usr/local/xenon/xenon/lib/32/libc.a(lib_a-strchr.o)
                0x0000000080061ab8                strchr
 .text          0x0000000080061cf0      0x10c /usr/local/xenon/xenon/lib/32/libc.a(lib_a-strcmp.o)
                0x0000000080061cf0                strcmp
 *fill*         0x0000000080061dfc        0x4 00
 .text          0x0000000080061e00       0xa4 /usr/local/xenon/xenon/lib/32/libc.a(lib_a-strcpy.o)
                0x0000000080061e00                strcpy
 *fill*         0x0000000080061ea4        0x4 00
 .text          0x0000000080061ea8       0x88 /usr/local/xenon/xenon/lib/32/libc.a(lib_a-strlcpy.o)
                0x0000000080061ea8                strlcpy
 .text          0x0000000080061f30      0x100 /usr/local/xenon/xenon/lib/32/libc.a(lib_a-strlen.o)
                0x0000000080061f30                strlen
 .text          0x0000000080062030       0xe8 /usr/local/xenon/xenon/lib/32/libc.a(lib_a-strncasecmp.o)
                0x0000000080062034                strncasecmp
 .text          0x0000000080062118      0x18c /usr/local/xenon/xenon/lib/32/libc.a(lib_a-strncmp.o)
                0x0000000080062118                strncmp
 *fill*         0x00000000800622a4        0x4 00
 .text          0x00000000800622a8       0xec /usr/local/xenon/xenon/lib/32/libc.a(lib_a-strncpy.o)
                0x00000000800622a8                strncpy
 *fill*         0x0000000080062394        0x4 00
 .text          0x0000000080062398       0x94 /usr/local/xenon/xenon/lib/32/libc.a(lib_a-strrchr.o)
                0x0000000080062398                strrchr
 *fill*         0x000000008006242c        0x4 00
 .text          0x0000000080062430     0x14c8 /usr/local/xenon/xenon/lib/32/libc.a(lib_a-strtod.o)
                0x00000000800624bc                _strtod_r
                0x0000000080063824                strtod
                0x0000000080063874                strtof
 .text          0x00000000800638f8      0x11c /usr/local/xenon/xenon/lib/32/libc.a(lib_a-strtok_r.o)
                0x00000000800638f8                __strtok_r
                0x00000000800639f0                strtok_r
 *fill*         0x0000000080063a14        0x4 00
 .text          0x0000000080063a18      0x2b4 /usr/local/xenon/xenon/lib/32/libc.a(lib_a-strtol.o)
                0x0000000080063a1c                _strtol_r
                0x0000000080063c7c                strtol
 *fill*         0x0000000080063ccc        0x4 00
 .text          0x0000000080063cd0     0x2338 /usr/local/xenon/xenon/lib/32/libc.a(lib_a-svfprintf.o)
                0x0000000080063fb4                _svfprintf_r
 .text          0x0000000080066008     0x1554 /usr/local/xenon/xenon/lib/32/libc.a(lib_a-vfiprintf.o)
                0x0000000080066074                _vfiprintf_r
                0x000000008006750c                vfiprintf
 *fill*         0x000000008006755c        0x4 00
 .text          0x0000000080067560     0x2204 /usr/local/xenon/xenon/lib/32/libc.a(lib_a-vfprintf.o)
                0x00000000800675cc                _vfprintf_r
                0x0000000080069714                vfprintf
 *fill*         0x0000000080069764        0x4 00
 .text          0x0000000080069768       0x80 /usr/local/xenon/xenon/lib/32/libc.a(lib_a-vprintf.o)
                0x000000008006976c                vprintf
                0x00000000800697b8                _vprintf_r
 .text          0x00000000800697e8      0x21c /usr/local/xenon/xenon/lib/32/libc.a(lib_a-wbuf.o)
                0x00000000800697e8                __swbuf_r
                0x00000000800699bc                __swbuf
 *fill*         0x0000000080069a04        0x4 00
 .text          0x0000000080069a08       0x9c /usr/local/xenon/xenon/lib/32/libc.a(lib_a-writer.o)
                0x0000000080069a0c                _write_r
 *fill*         0x0000000080069aa4        0x4 00
 .text          0x0000000080069aa8      0x1b0 /usr/local/xenon/xenon/lib/32/libc.a(lib_a-wsetup.o)
                0x0000000080069aac                __swsetup_r
 .text          0x0000000080069c58      0x1f8 /usr/local/xenon/xenon/lib/32/libc.a(lib_a-__call_atexit.o)
                0x0000000080069c5c                __call_exitprocs
 .text          0x0000000080069e50       0x94 /usr/local/xenon/xenon/lib/32/libc.a(lib_a-closer.o)
                0x0000000080069e54                _close_r
 *fill*         0x0000000080069ee4        0x4 00
 .text          0x0000000080069ee8     0x14dc /usr/local/xenon/xenon/lib/32/libc.a(lib_a-dtoa.o)
                0x000000008006a13c                _dtoa_r
 *fill*         0x000000008006b3c4        0x4 00
 .text          0x000000008006b3c8       0xa0 /usr/local/xenon/xenon/lib/32/libc.a(lib_a-flags.o)
                0x000000008006b3c8                __sflags
 .text          0x000000008006b468      0xa18 /usr/local/xenon/xenon/lib/32/libc.a(lib_a-gdtoa-gethex.o)
                0x000000008006b5dc                __hexdig_init
                0x000000008006b694                __gethex
 .text          0x000000008006be80      0x32c /usr/local/xenon/xenon/lib/32/libc.a(lib_a-gdtoa-hexnan.o)
                0x000000008006be84                __hexnan
 *fill*         0x000000008006c1ac        0x4 00
 .text          0x000000008006c1b0       0x94 /usr/local/xenon/xenon/lib/32/libc.a(lib_a-isattyr.o)
                0x000000008006c1b4                _isatty_r
 *fill*         0x000000008006c244        0x4 00
 .text          0x000000008006c248      0x1cc /usr/local/xenon/xenon/lib/32/libc.a(lib_a-locale.o)
                0x000000008006c24c                _setlocale_r
                0x000000008006c304                __locale_charset
                0x000000008006c344                _localeconv_r
                0x000000008006c384                setlocale
                0x000000008006c3d4                localeconv
 *fill*         0x000000008006c414        0x4 00
 .text          0x000000008006c418       0x9c /usr/local/xenon/xenon/lib/32/libc.a(lib_a-lseekr.o)
                0x000000008006c41c                _lseek_r
 *fill*         0x000000008006c4b4        0x4 00
 .text          0x000000008006c4b8     0x1308 /usr/local/xenon/xenon/lib/32/libc.a(lib_a-mprec.o)
                0x000000008006c4b8                _Balloc
                0x000000008006c580                _Bfree
                0x000000008006c5a8                __multadd
                0x000000008006c6d0                __s2b
                0x000000008006c820                __hi0bits
                0x000000008006c898                __lo0bits
                0x000000008006c978                __i2b
                0x000000008006c9b8                __multiply
                0x000000008006cc1c                __pow5mult
                0x000000008006cd70                __lshift
                0x000000008006cef0                __mcmp
                0x000000008006cf50                __mdiff
                0x000000008006d138                __ulp
                0x000000008006d1d0                __b2d
                0x000000008006d350                __d2b
                0x000000008006d4f0                __ratio
                0x000000008006d5dc                _mprec_log10
                0x000000008006d658                __copybits
                0x000000008006d6e0                __any_on
 .text          0x000000008006d7c0       0x9c /usr/local/xenon/xenon/lib/32/libc.a(lib_a-readr.o)
                0x000000008006d7c4                _read_r
 *fill*         0x000000008006d85c        0x4 00
 .text          0x000000008006d860       0x40 /usr/local/xenon/xenon/lib/32/libc.a(lib_a-sf_nan.o)
                0x000000008006d864                nanf
 .text          0x000000008006d8a0       0x44 /usr/local/xenon/xenon/lib/32/libc.a(lib_a-s_isinfd.o)
                0x000000008006d8a0                __isinfd
 *fill*         0x000000008006d8e4        0x4 00
 .text          0x000000008006d8e8       0xc8 /usr/local/xenon/xenon/lib/32/libc.a(lib_a-callocr.o)
                0x000000008006d8e8                _calloc_r
 .text          0x000000008006d9b0      0x434 /usr/local/xenon/lib/gcc/xenon/4.6.0/32/libgcc.a(_udivdi3.o)
                0x000000008006d9b0                __udivdi3
 *fill*         0x000000008006dde4        0x4 00
 .text          0x000000008006dde8      0x3f0 /usr/local/xenon/lib/gcc/xenon/4.6.0/32/libgcc.a(_umoddi3.o)
                0x000000008006dde8                __umoddi3
 *(.init*)

.glink          0x000000008006e1d8        0x0
 .glink         0x0000000000000000        0x0 /usr/local/xenon/lib/gcc/xenon/4.6.0/../../../../xenon/lib/../lib/crt1.o

.elfldr         0x000000008006e1d8        0x0
                0x000000008006e1d8                elfldr_start = .
 *(.elfldr)
                0x000000008006e1d8                elfldr_end = .

.data           0x000000008006e1d8     0x87e8
 *(.data*)
 .data.mounts   0x000000008006e1d8      0x480 /usr/local/xenon/usr/lib/libxenon.a(newlib.o)
 .data.vfs_console_ops
                0x000000008006e658       0x18 /usr/local/xenon/usr/lib/libxenon.a(newlib.o)
                0x000000008006e658                vfs_console_ops
 .data.vfs_console_mount_ops
                0x000000008006e670       0x10 /usr/local/xenon/usr/lib/libxenon.a(newlib.o)
                0x000000008006e670                vfs_console_mount_ops
 .data.fd_array
                0x000000008006e680      0xc00 /usr/local/xenon/usr/lib/libxenon.a(newlib.o)
 .data.first_access
                0x000000008006f280        0x4 /usr/local/xenon/usr/lib/libxenon.a(tinyehci.o)
 .data.__lun    0x000000008006f284        0x1 /usr/local/xenon/usr/lib/libxenon.a(tinyehci.o)
 *fill*         0x000000008006f285        0x3 00
 .data.ana_yuv_480p
                0x000000008006f288      0x400 /usr/local/xenon/usr/lib/libxenon.a(xenos.o)
                0x000000008006f288                ana_yuv_480p
 .data.ana_ntsc_480i
                0x000000008006f688      0x400 /usr/local/xenon/usr/lib/libxenon.a(xenos.o)
                0x000000008006f688                ana_ntsc_480i
 .data.ana_1280x1024
                0x000000008006fa88      0x400 /usr/local/xenon/usr/lib/libxenon.a(xenos.o)
                0x000000008006fa88                ana_1280x1024
 .data.ana_pal  0x000000008006fe88      0x400 /usr/local/xenon/usr/lib/libxenon.a(xenos.o)
                0x000000008006fe88                ana_pal
 .data.ana_1360x768
                0x0000000080070288      0x400 /usr/local/xenon/usr/lib/libxenon.a(xenos.o)
                0x0000000080070288                ana_1360x768
 .data.ana_640_480_composite
                0x0000000080070688      0x400 /usr/local/xenon/usr/lib/libxenon.a(xenos.o)
                0x0000000080070688                ana_640_480_composite
 .data.ana_1440x900
                0x0000000080070a88      0x400 /usr/local/xenon/usr/lib/libxenon.a(xenos.o)
                0x0000000080070a88                ana_1440x900
 .data.ana_1280x768
                0x0000000080070e88      0x400 /usr/local/xenon/usr/lib/libxenon.a(xenos.o)
                0x0000000080070e88                ana_1280x768
 .data.ana_1280x720
                0x0000000080071288      0x400 /usr/local/xenon/usr/lib/libxenon.a(xenos.o)
                0x0000000080071288                ana_1280x720
 .data.ana_1024x768
                0x0000000080071688      0x400 /usr/local/xenon/usr/lib/libxenon.a(xenos.o)
                0x0000000080071688                ana_1024x768
 .data.ana_hdmi_720p
                0x0000000080071a88      0x400 /usr/local/xenon/usr/lib/libxenon.a(xenos.o)
                0x0000000080071a88                ana_hdmi_720p
 .data.xenos_modes
                0x0000000080071e88      0x2d8 /usr/local/xenon/usr/lib/libxenon.a(xenos.o)
                0x0000000080071e88                xenos_modes
 .data.ana_640x480p
                0x0000000080072160      0x400 /usr/local/xenon/usr/lib/libxenon.a(xenos.o)
                0x0000000080072160                ana_640x480p
 .data.ana_yuv_720p
                0x0000000080072560      0x400 /usr/local/xenon/usr/lib/libxenon.a(xenos.o)
                0x0000000080072560                ana_yuv_720p
 .data.vfs_fat_mount_ops
                0x0000000080072960       0x10 /usr/local/xenon/usr/lib/libxenon.a(fat.o)
                0x0000000080072960                vfs_fat_mount_ops
 .data.vfs_fat_file_ops
                0x0000000080072970       0x18 /usr/local/xenon/usr/lib/libxenon.a(fat.o)
                0x0000000080072970                vfs_fat_file_ops
 .data.vfs_iso9660_mount_ops
                0x0000000080072988       0x10 /usr/local/xenon/usr/lib/libxenon.a(iso9660.o)
                0x0000000080072988                vfs_iso9660_mount_ops
 .data.vfs_iso9660_file_ops
                0x0000000080072998       0x18 /usr/local/xenon/usr/lib/libxenon.a(iso9660.o)
                0x0000000080072998                vfs_iso9660_file_ops
 .data.ohci_driver
                0x00000000800729b0       0x2c /usr/local/xenon/usr/lib/libxenon.a(ohci.o)
                0x00000000800729b0                ohci_driver
 .data.usb_drivers
                0x00000000800729dc       0x60 /usr/local/xenon/usr/lib/libxenon.a(usbdevs.o)
                0x00000000800729dc                usb_drivers
 .data.usbhid_driver
                0x0000000080072a3c        0xc /usr/local/xenon/usr/lib/libxenon.a(usbhid.o)
                0x0000000080072a3c                usbhid_driver
 .data.usbhid_scantable
                0x0000000080072a48      0x650 /usr/local/xenon/usr/lib/libxenon.a(usbhid.o)
 .data.usbhub_driver
                0x0000000080073098        0xc /usr/local/xenon/usr/lib/libxenon.a(usbhub.o)
                0x0000000080073098                usbhub_driver
 .data.usbroothub_driver
                0x00000000800730a4        0xc /usr/local/xenon/usr/lib/libxenon.a(usbhub.o)
                0x00000000800730a4                usbroothub_driver
 .data.xenos_ucode0
                0x00000000800730b0      0x480 /usr/local/xenon/usr/lib/libxenon.a(ucode.o)
                0x00000000800730b0                xenos_ucode0
 .data.xenos_ucode1
                0x0000000080073530     0x2400 /usr/local/xenon/usr/lib/libxenon.a(ucode.o)
                0x0000000080073530                xenos_ucode1
 .data.usbctrl_driver
                0x0000000080075930        0xc /usr/local/xenon/usr/lib/libxenon.a(usbctrl.o)
                0x0000000080075930                usbctrl_driver
 .data.DW.ref._ZTISt9bad_alloc
                0x000000008007593c        0x4 /usr/local/xenon/lib/gcc/xenon/4.6.0/../../../../xenon/lib/../lib/libstdc++.a(new_opv.o)
                0x000000008007593c                DW.ref._ZTISt9bad_alloc
 .data.DW.ref.__gxx_personality_v0
                0x0000000080075940        0x4 /usr/local/xenon/lib/gcc/xenon/4.6.0/../../../../xenon/lib/../lib/libstdc++.a(new_opv.o)
                0x0000000080075940                DW.ref.__gxx_personality_v0
 .data.rel.ro._ZTISt9bad_alloc
                0x0000000080075944        0xc /usr/local/xenon/lib/gcc/xenon/4.6.0/../../../../xenon/lib/../lib/libstdc++.a(bad_alloc.o)
                0x0000000080075944                _ZTISt9bad_alloc
 .data.rel.ro._ZTVSt9bad_alloc
                0x0000000080075950       0x14 /usr/local/xenon/lib/gcc/xenon/4.6.0/../../../../xenon/lib/../lib/libstdc++.a(bad_alloc.o)
                0x0000000080075950                _ZTVSt9bad_alloc
 .data.rel.ro._ZTISt9exception
                0x0000000080075964        0x8 /usr/local/xenon/lib/gcc/xenon/4.6.0/../../../../xenon/lib/../lib/libstdc++.a(eh_exception.o)
                0x0000000080075964                _ZTISt9exception
 .data.rel.ro._ZTISt13bad_exception
                0x000000008007596c        0xc /usr/local/xenon/lib/gcc/xenon/4.6.0/../../../../xenon/lib/../lib/libstdc++.a(eh_exception.o)
                0x000000008007596c                _ZTISt13bad_exception
 .data.rel.ro._ZTIN10__cxxabiv115__forced_unwindE
                0x0000000080075978        0x8 /usr/local/xenon/lib/gcc/xenon/4.6.0/../../../../xenon/lib/../lib/libstdc++.a(eh_exception.o)
                0x0000000080075978                _ZTIN10__cxxabiv115__forced_unwindE
 .data.rel.ro._ZTIN10__cxxabiv119__foreign_exceptionE
                0x0000000080075980        0x8 /usr/local/xenon/lib/gcc/xenon/4.6.0/../../../../xenon/lib/../lib/libstdc++.a(eh_exception.o)
                0x0000000080075980                _ZTIN10__cxxabiv119__foreign_exceptionE
 .data.rel.ro._ZTVSt9exception
                0x0000000080075988       0x14 /usr/local/xenon/lib/gcc/xenon/4.6.0/../../../../xenon/lib/../lib/libstdc++.a(eh_exception.o)
                0x0000000080075988                _ZTVSt9exception
 *fill*         0x000000008007599c        0x4 00
 .data.rel.ro._ZTVSt13bad_exception
                0x00000000800759a0       0x14 /usr/local/xenon/lib/gcc/xenon/4.6.0/../../../../xenon/lib/../lib/libstdc++.a(eh_exception.o)
                0x00000000800759a0                _ZTVSt13bad_exception
 *fill*         0x00000000800759b4        0x4 00
 .data.rel.ro._ZTVN10__cxxabiv115__forced_unwindE
                0x00000000800759b8       0x14 /usr/local/xenon/lib/gcc/xenon/4.6.0/../../../../xenon/lib/../lib/libstdc++.a(eh_exception.o)
                0x00000000800759b8                _ZTVN10__cxxabiv115__forced_unwindE
 *fill*         0x00000000800759cc        0x4 00
 .data.rel.ro._ZTVN10__cxxabiv119__foreign_exceptionE
                0x00000000800759d0       0x14 /usr/local/xenon/lib/gcc/xenon/4.6.0/../../../../xenon/lib/../lib/libstdc++.a(eh_exception.o)
                0x00000000800759d0                _ZTVN10__cxxabiv119__foreign_exceptionE
 .data.rel.ro._ZTIN10__cxxabiv117__class_type_infoE
                0x00000000800759e4        0xc /usr/local/xenon/lib/gcc/xenon/4.6.0/../../../../xenon/lib/../lib/libstdc++.a(class_type_info.o)
                0x00000000800759e4                _ZTIN10__cxxabiv117__class_type_infoE
 .data.rel.ro._ZTVN10__cxxabiv117__class_type_infoE
                0x00000000800759f0       0x2c /usr/local/xenon/lib/gcc/xenon/4.6.0/../../../../xenon/lib/../lib/libstdc++.a(class_type_info.o)
                0x00000000800759f0                _ZTVN10__cxxabiv117__class_type_infoE
 .data.rel._ZN10__cxxabiv119__terminate_handlerE
                0x0000000080075a1c        0x4 /usr/local/xenon/lib/gcc/xenon/4.6.0/../../../../xenon/lib/../lib/libstdc++.a(eh_term_handler.o)
                0x0000000080075a1c                _ZN10__cxxabiv119__terminate_handlerE
 .data.rel.ro._ZTIN10__cxxabiv120__si_class_type_infoE
                0x0000000080075a20        0xc /usr/local/xenon/lib/gcc/xenon/4.6.0/../../../../xenon/lib/../lib/libstdc++.a(si_class_type_info.o)
                0x0000000080075a20                _ZTIN10__cxxabiv120__si_class_type_infoE
 *fill*         0x0000000080075a2c        0x4 00
 .data.rel.ro._ZTVN10__cxxabiv120__si_class_type_infoE
                0x0000000080075a30       0x2c /usr/local/xenon/lib/gcc/xenon/4.6.0/../../../../xenon/lib/../lib/libstdc++.a(si_class_type_info.o)
                0x0000000080075a30                _ZTVN10__cxxabiv120__si_class_type_infoE
 .data.rel._ZN10__cxxabiv120__unexpected_handlerE
                0x0000000080075a5c        0x4 /usr/local/xenon/lib/gcc/xenon/4.6.0/../../../../xenon/lib/../lib/libstdc++.a(eh_unex_handler.o)
                0x0000000080075a5c                _ZN10__cxxabiv120__unexpected_handlerE
 .data.rel.ro._ZTISt9type_info
                0x0000000080075a60        0x8 /usr/local/xenon/lib/gcc/xenon/4.6.0/../../../../xenon/lib/../lib/libstdc++.a(tinfo.o)
                0x0000000080075a60                _ZTISt9type_info
 .data.rel.ro._ZTVSt9type_info
                0x0000000080075a68       0x20 /usr/local/xenon/lib/gcc/xenon/4.6.0/../../../../xenon/lib/../lib/libstdc++.a(tinfo.o)
                0x0000000080075a68                _ZTVSt9type_info
 .data.DW.ref._ZTISt9exception
                0x0000000080075a88        0x4 /usr/local/xenon/lib/gcc/xenon/4.6.0/../../../../xenon/lib/../lib/libstdc++.a(vterminate.o)
                0x0000000080075a88                DW.ref._ZTISt9exception
 .data.rel.ro.local
                0x0000000080075a8c      0x6a8 /usr/local/xenon/lib/gcc/xenon/4.6.0/../../../../xenon/lib/../lib/libstdc++.a(cp-demangle.o)
 *fill*         0x0000000080076134        0x4 00
 .data.rel.local
                0x0000000080076138      0x428 /usr/local/xenon/xenon/lib/32/libc.a(lib_a-impure.o)
 .data.rel      0x0000000080076560      0x408 /usr/local/xenon/xenon/lib/32/libc.a(lib_a-mallocr.o)
                0x0000000080076560                __malloc_av_
 .data          0x0000000080076968       0x28 /usr/local/xenon/xenon/lib/32/libc.a(lib_a-strtod.o)
 .data.rel.ro.local
                0x0000000080076990       0x30 /usr/local/xenon/xenon/lib/32/libc.a(lib_a-locale.o)

.got2           0x00000000800769c0      0x558
 .got2          0x00000000800769c0       0x18 /usr/local/xenon/lib/gcc/xenon/4.6.0/../../../../xenon/lib/../lib/libstdc++.a(eh_personality.o)
 .got2          0x00000000800769d8       0x10 /usr/local/xenon/lib/gcc/xenon/4.6.0/../../../../xenon/lib/../lib/libstdc++.a(eh_alloc.o)
 .got2          0x00000000800769e8        0x8 /usr/local/xenon/lib/gcc/xenon/4.6.0/../../../../xenon/lib/../lib/libstdc++.a(bad_alloc.o)
 .got2          0x00000000800769f0       0x10 /usr/local/xenon/lib/gcc/xenon/4.6.0/../../../../xenon/lib/../lib/libstdc++.a(new_op.o)
 .got2          0x0000000080076a00        0x8 /usr/local/xenon/lib/gcc/xenon/4.6.0/../../../../xenon/lib/../lib/libstdc++.a(eh_terminate.o)
 .got2          0x0000000080076a08       0x18 /usr/local/xenon/lib/gcc/xenon/4.6.0/../../../../xenon/lib/../lib/libstdc++.a(eh_exception.o)
 .got2          0x0000000080076a20        0x4 /usr/local/xenon/lib/gcc/xenon/4.6.0/../../../../xenon/lib/../lib/libstdc++.a(eh_globals.o)
 .got2          0x0000000080076a24        0x4 /usr/local/xenon/lib/gcc/xenon/4.6.0/../../../../xenon/lib/../lib/libstdc++.a(class_type_info.o)
 .got2          0x0000000080076a28        0x4 /usr/local/xenon/lib/gcc/xenon/4.6.0/../../../../xenon/lib/../lib/libstdc++.a(si_class_type_info.o)
 .got2          0x0000000080076a2c        0x4 /usr/local/xenon/lib/gcc/xenon/4.6.0/../../../../xenon/lib/../lib/libstdc++.a(tinfo.o)
 .got2          0x0000000080076a30        0xc /usr/local/xenon/lib/gcc/xenon/4.6.0/../../../../xenon/lib/../lib/libstdc++.a(eh_throw.o)
 .got2          0x0000000080076a3c        0x4 /usr/local/xenon/lib/gcc/xenon/4.6.0/../../../../xenon/lib/../lib/libstdc++.a(pure.o)
 .got2          0x0000000080076a40       0x1c /usr/local/xenon/lib/gcc/xenon/4.6.0/../../../../xenon/lib/../lib/libstdc++.a(vterminate.o)
 .got2          0x0000000080076a5c      0x120 /usr/local/xenon/lib/gcc/xenon/4.6.0/../../../../xenon/lib/../lib/libstdc++.a(cp-demangle.o)
 .got2          0x0000000080076b7c        0x8 /usr/local/xenon/xenon/lib/32/libm.a(lib_a-s_floor.o)
 .got2          0x0000000080076b84        0x4 /usr/local/xenon/xenon/lib/32/libm.a(lib_a-s_frexp.o)
 .got2          0x0000000080076b88       0x24 /usr/local/xenon/xenon/lib/32/libm.a(lib_a-w_pow.o)
 .got2          0x0000000080076bac       0x8c /usr/local/xenon/xenon/lib/32/libm.a(lib_a-e_pow.o)
 .got2          0x0000000080076c38        0x4 /usr/local/xenon/xenon/lib/32/libm.a(lib_a-s_rint.o)
 .got2          0x0000000080076c3c       0x10 /usr/local/xenon/xenon/lib/32/libm.a(lib_a-s_scalbn.o)
 .got2          0x0000000080076c4c       0x1c /usr/local/xenon/lib/gcc/xenon/4.6.0/32/libgcc.a(unwind-dw2.o)
 .got2          0x0000000080076c68       0x14 /usr/local/xenon/lib/gcc/xenon/4.6.0/32/libgcc.a(unwind-dw2-fde-glibc.o)
 .got2          0x0000000080076c7c       0x10 /usr/local/xenon/xenon/lib/32/libc.a(lib_a-assert.o)
 .got2          0x0000000080076c8c        0x4 /usr/local/xenon/xenon/lib/32/libc.a(lib_a-errno.o)
 .got2          0x0000000080076c90        0x4 /usr/local/xenon/xenon/lib/32/libc.a(lib_a-exit.o)
 .got2          0x0000000080076c94        0x4 /usr/local/xenon/xenon/lib/32/libc.a(lib_a-fclose.o)
 .got2          0x0000000080076c98        0xc /usr/local/xenon/xenon/lib/32/libc.a(lib_a-fflush.o)
 .got2          0x0000000080076ca4       0x28 /usr/local/xenon/xenon/lib/32/libc.a(lib_a-findfp.o)
 .got2          0x0000000080076ccc        0x4 /usr/local/xenon/xenon/lib/32/libc.a(lib_a-fiprintf.o)
 .got2          0x0000000080076cd0       0x14 /usr/local/xenon/xenon/lib/32/libc.a(lib_a-fopen.o)
 .got2          0x0000000080076ce4        0x4 /usr/local/xenon/xenon/lib/32/libc.a(lib_a-fprintf.o)
 .got2          0x0000000080076ce8        0x4 /usr/local/xenon/xenon/lib/32/libc.a(lib_a-fputc.o)
 .got2          0x0000000080076cec        0x4 /usr/local/xenon/xenon/lib/32/libc.a(lib_a-fputs.o)
 .got2          0x0000000080076cf0        0x4 /usr/local/xenon/xenon/lib/32/libc.a(lib_a-fread.o)
 .got2          0x0000000080076cf4       0x18 /usr/local/xenon/xenon/lib/32/libc.a(lib_a-freer.o)
 .got2          0x0000000080076d0c        0x8 /usr/local/xenon/xenon/lib/32/libc.a(lib_a-fseek.o)
 .got2          0x0000000080076d14        0x4 /usr/local/xenon/xenon/lib/32/libc.a(lib_a-fstatr.o)
 .got2          0x0000000080076d18        0x4 /usr/local/xenon/xenon/lib/32/libc.a(lib_a-ftell.o)
 .got2          0x0000000080076d1c        0x4 /usr/local/xenon/xenon/lib/32/libc.a(lib_a-fwrite.o)
 .got2          0x0000000080076d20        0x8 /usr/local/xenon/xenon/lib/32/libc.a(lib_a-makebuf.o)
 .got2          0x0000000080076d28        0x4 /usr/local/xenon/xenon/lib/32/libc.a(lib_a-malign.o)
 .got2          0x0000000080076d2c        0x4 /usr/local/xenon/xenon/lib/32/libc.a(lib_a-malloc.o)
 .got2          0x0000000080076d30       0x18 /usr/local/xenon/xenon/lib/32/libc.a(lib_a-mallocr.o)
 .got2          0x0000000080076d48        0x4 /usr/local/xenon/xenon/lib/32/libc.a(lib_a-openr.o)
 .got2          0x0000000080076d4c        0x4 /usr/local/xenon/xenon/lib/32/libc.a(lib_a-printf.o)
 .got2          0x0000000080076d50        0x4 /usr/local/xenon/xenon/lib/32/libc.a(lib_a-putchar.o)
 .got2          0x0000000080076d54        0x4 /usr/local/xenon/xenon/lib/32/libc.a(lib_a-putc.o)
 .got2          0x0000000080076d58        0x8 /usr/local/xenon/xenon/lib/32/libc.a(lib_a-puts.o)
 .got2          0x0000000080076d60        0x4 /usr/local/xenon/xenon/lib/32/libc.a(lib_a-rand.o)
 .got2          0x0000000080076d64        0x4 /usr/local/xenon/xenon/lib/32/libc.a(lib_a-realloc.o)
 .got2          0x0000000080076d68        0x4 /usr/local/xenon/xenon/lib/32/libc.a(lib_a-reallocr.o)
 .got2          0x0000000080076d6c        0x8 /usr/local/xenon/xenon/lib/32/libc.a(lib_a-refill.o)
 .got2          0x0000000080076d74        0x4 /usr/local/xenon/xenon/lib/32/libc.a(lib_a-sbrkr.o)
 .got2          0x0000000080076d78        0x4 /usr/local/xenon/xenon/lib/32/libc.a(lib_a-signal.o)
 .got2          0x0000000080076d7c        0x4 /usr/local/xenon/xenon/lib/32/libc.a(lib_a-signalr.o)
 .got2          0x0000000080076d80        0x4 /usr/local/xenon/xenon/lib/32/libc.a(lib_a-snprintf.o)
 .got2          0x0000000080076d84        0x4 /usr/local/xenon/xenon/lib/32/libc.a(lib_a-sprintf.o)
 .got2          0x0000000080076d88        0x4 /usr/local/xenon/xenon/lib/32/libc.a(lib_a-strcasecmp.o)
 .got2          0x0000000080076d8c        0x4 /usr/local/xenon/xenon/lib/32/libc.a(lib_a-strncasecmp.o)
 .got2          0x0000000080076d90       0x5c /usr/local/xenon/xenon/lib/32/libc.a(lib_a-strtod.o)
 .got2          0x0000000080076dec        0x8 /usr/local/xenon/xenon/lib/32/libc.a(lib_a-strtol.o)
 .got2          0x0000000080076df4       0x30 /usr/local/xenon/xenon/lib/32/libc.a(lib_a-svfprintf.o)
 .got2          0x0000000080076e24       0x1c /usr/local/xenon/xenon/lib/32/libc.a(lib_a-vfiprintf.o)
 .got2          0x0000000080076e40       0x34 /usr/local/xenon/xenon/lib/32/libc.a(lib_a-vfprintf.o)
 .got2          0x0000000080076e74        0x4 /usr/local/xenon/xenon/lib/32/libc.a(lib_a-vprintf.o)
 .got2          0x0000000080076e78        0x4 /usr/local/xenon/xenon/lib/32/libc.a(lib_a-wbuf.o)
 .got2          0x0000000080076e7c        0x4 /usr/local/xenon/xenon/lib/32/libc.a(lib_a-writer.o)
 .got2          0x0000000080076e80        0x4 /usr/local/xenon/xenon/lib/32/libc.a(lib_a-wsetup.o)
 .got2          0x0000000080076e84        0x4 /usr/local/xenon/xenon/lib/32/libc.a(lib_a-__call_atexit.o)
 .got2          0x0000000080076e88        0x4 /usr/local/xenon/xenon/lib/32/libc.a(lib_a-closer.o)
 .got2          0x0000000080076e8c       0x44 /usr/local/xenon/xenon/lib/32/libc.a(lib_a-dtoa.o)
 .got2          0x0000000080076ed0       0x10 /usr/local/xenon/xenon/lib/32/libc.a(lib_a-gdtoa-gethex.o)
 .got2          0x0000000080076ee0        0x4 /usr/local/xenon/xenon/lib/32/libc.a(lib_a-gdtoa-hexnan.o)
 .got2          0x0000000080076ee4        0x4 /usr/local/xenon/xenon/lib/32/libc.a(lib_a-isattyr.o)
 .got2          0x0000000080076ee8       0x14 /usr/local/xenon/xenon/lib/32/libc.a(lib_a-locale.o)
 .got2          0x0000000080076efc        0x4 /usr/local/xenon/xenon/lib/32/libc.a(lib_a-lseekr.o)
 .got2          0x0000000080076f00       0x10 /usr/local/xenon/xenon/lib/32/libc.a(lib_a-mprec.o)
 .got2          0x0000000080076f10        0x4 /usr/local/xenon/xenon/lib/32/libc.a(lib_a-readr.o)
 .got2          0x0000000080076f14        0x4 /usr/local/xenon/xenon/lib/32/libc.a(lib_a-sf_nan.o)

.sdata          0x0000000080076f18       0x48
 *(.sdata*)
 .sdata.xenon_atapi_ops
                0x0000000080076f18        0x8 /usr/local/xenon/usr/lib/libxenon.a(ata.o)
                0x0000000080076f18                xenon_atapi_ops
 .sdata.xenon_ata_ops
                0x0000000080076f20        0x8 /usr/local/xenon/usr/lib/libxenon.a(ata.o)
                0x0000000080076f20                xenon_ata_ops
 .sdata.usb_timeout
                0x0000000080076f28        0x4 /usr/local/xenon/usr/lib/libxenon.a(tinyehci.o)
                0x0000000080076f28                usb_timeout
 .sdata.usb2mass_ops
                0x0000000080076f2c        0x8 /usr/local/xenon/usr/lib/libxenon.a(tinyehci.o)
                0x0000000080076f2c                usb2mass_ops
 .sdata.vfs_fat_dir_ops
                0x0000000080076f34        0x8 /usr/local/xenon/usr/lib/libxenon.a(fat.o)
                0x0000000080076f34                vfs_fat_dir_ops
 .sdata.vfs_iso9660_dir_ops
                0x0000000080076f3c        0x8 /usr/local/xenon/usr/lib/libxenon.a(iso9660.o)
                0x0000000080076f3c                vfs_iso9660_dir_ops
 .sdata         0x0000000080076f44        0x4 /usr/local/xenon/xenon/lib/32/libm.a(lib_a-s_lib_ver.o)
                0x0000000080076f44                __fdlib_version
 .sdata         0x0000000080076f48        0x8 /usr/local/xenon/xenon/lib/32/libc.a(lib_a-ctype_.o)
                0x0000000080076f48                __ctype_ptr__
                0x0000000080076f4c                __ctype_ptr
 .sdata         0x0000000080076f50        0x8 /usr/local/xenon/xenon/lib/32/libc.a(lib_a-impure.o)
                0x0000000080076f50                _global_impure_ptr
                0x0000000080076f54                _impure_ptr
 .sdata         0x0000000080076f58        0x8 /usr/local/xenon/xenon/lib/32/libc.a(lib_a-mallocr.o)
                0x0000000080076f58                __malloc_sbrk_base
                0x0000000080076f5c                __malloc_trim_threshold

.rodata         0x0000000080076f60     0xdd2c
 *(.rodata*)
 .rodata        0x0000000080076f60       0xa8 draw_c_p.psu.o
                0x0000000080076f60                draw_c_p_psu
                0x0000000080077004                draw_c_p_psu_size
                0x0000000080077004                draw_c_p_psu_end
 .rodata        0x0000000080077008       0xe8 draw_t_p.psu.o
                0x0000000080077008                draw_t_p_psu
                0x00000000800770ec                draw_t_p_psu_end
                0x00000000800770ec                draw_t_p_psu_size
 .rodata        0x00000000800770f0      0x118 draw_v.vsu.o
                0x00000000800770f0                draw_v_vsu
                0x0000000080077204                draw_v_vsu_size
                0x0000000080077204                draw_v_vsu_end
 .rodata        0x0000000080077208      0x1c8 font_p.psu.o
                0x0000000080077208                font_p_psu
                0x00000000800773cc                font_p_psu_size
                0x00000000800773cc                font_p_psu_end
 .rodata        0x00000000800773d0      0x218 font_v.vsu.o
                0x00000000800773d0                font_v_vsu
                0x00000000800775e4                font_v_vsu_end
                0x00000000800775e4                font_v_vsu_size
 .rodata        0x00000000800775e8      0x72e Verdana_16.abc.o
                0x00000000800775e8                Verdana_16_abc
                0x0000000080077d12                Verdana_16_abc_size
                0x0000000080077d12                Verdana_16_abc_end
 *fill*         0x0000000080077d16        0x2 00
 .rodata        0x0000000080077d18     0x2c4f Verdana_16.png.o
                0x0000000080077d18                Verdana_16_png
                0x000000008007a963                Verdana_16_png_end
                0x000000008007a963                Verdana_16_png_size
 *fill*         0x000000008007a967        0x1 00
 .rodata.cst4   0x000000008007a968       0x38 main.o
 .rodata.str1.8
                0x000000008007a9a0       0xd6 main.o
 *fill*         0x000000008007aa76        0x2 00
 .rodata.cst4   0x000000008007aa78       0x84 Tank.o
                                         0x8c (size before relaxing)
 .rodata.CSWTCH.9
                0x000000008007aafc       0x18 Tank.o
 .rodata.CSWTCH.8
                0x000000008007ab14       0x18 Tank.o
 .rodata.cst4   0x0000000000000000        0x8 Console.o
 *fill*         0x000000008007ab2c        0x4 00
 .rodata.str1.8
                0x000000008007ab30       0xd2 Console.o
 *fill*         0x000000008007ac02        0x2 00
 .rodata.cst4   0x000000008007ac04        0x8 Draw.o
                                         0x10 (size before relaxing)
 .rodata._ZZN3ZLXL12CreateShaderEvE3vbf
                0x000000008007ac0c       0x7c Draw.o
 .rodata.cst4   0x000000008007ac88        0x8 Font.o
                                         0x18 (size before relaxing)
 .rodata._ZZN3ZLX4Font16CreateFontShaderEvE3vbf
                0x000000008007ac90       0x7c Font.o
 *fill*         0x000000008007ad0c        0x4 00
 .rodata.str1.8
                0x000000008007ad10        0xe Font.o
 *fill*         0x000000008007ad1e        0x2 00
 .rodata.str1.8
                0x000000008007ad20       0xd0 Utils.o
 .rodata        0x000000008007adf0        0xc /usr/local/xenon/usr/lib/libxenon.a(ata.o)
 .rodata.str1.1
                0x000000008007adfc      0x1e3 /usr/local/xenon/usr/lib/libxenon.a(ata.o)
 *fill*         0x000000008007afdf        0x1 00
 .rodata.__FUNCTION__.3071
                0x000000008007afe0       0x13 /usr/local/xenon/usr/lib/libxenon.a(ata.o)
 .rodata.str1.1
                0x000000008007aff3       0x1d /usr/local/xenon/usr/lib/libxenon.a(newlib.o)
 .rodata.str1.1
                0x000000008007b010       0xcf /usr/local/xenon/usr/lib/libxenon.a(usbmain.o)
 .rodata.str1.1
                0x000000008007b0df       0x9e /usr/local/xenon/usr/lib/libxenon.a(tinyehci.o)
 .rodata.str1.1
                0x000000008007b17d      0x10b /usr/local/xenon/usr/lib/libxenon.a(xenon_smc.o)
 .rodata        0x000000008007b288      0x3ac /usr/local/xenon/usr/lib/libxenon.a(edram.o)
 .rodata.str1.1
                0x000000008007b634       0xe2 /usr/local/xenon/usr/lib/libxenon.a(edram.o)
                                         0xe4 (size before relaxing)
 *fill*         0x000000008007b716        0x2 00
 .rodata.__FUNCTION__.3708
                0x000000008007b718        0x9 /usr/local/xenon/usr/lib/libxenon.a(edram.o)
 *fill*         0x000000008007b721        0x3 00
 .rodata.Xe_pCalcVtxCount
                0x000000008007b724       0x20 /usr/local/xenon/usr/lib/libxenon.a(xe.o)
 .rodata        0x000000008007b744       0x18 /usr/local/xenon/usr/lib/libxenon.a(xe.o)
 *fill*         0x000000008007b75c        0x4 00
 .rodata.__FUNCTION__.4612
                0x000000008007b760       0x11 /usr/local/xenon/usr/lib/libxenon.a(xe.o)
 *fill*         0x000000008007b771        0x7 00
 .rodata.__FUNCTION__.4159
                0x000000008007b778       0x1c /usr/local/xenon/usr/lib/libxenon.a(xe.o)
 *fill*         0x000000008007b794        0x4 00
 .rodata.__FUNCTION__.4437
                0x000000008007b798        0xf /usr/local/xenon/usr/lib/libxenon.a(xe.o)
 .rodata.str1.1
                0x000000008007b7a7      0x4c2 /usr/local/xenon/usr/lib/libxenon.a(xe.o)
                                        0x4cc (size before relaxing)
 *fill*         0x000000008007bc69        0x7 00
 .rodata.__FUNCTION__.4504
                0x000000008007bc70        0xd /usr/local/xenon/usr/lib/libxenon.a(xe.o)
 *fill*         0x000000008007bc7d        0x3 00
 .rodata.__FUNCTION__.4203
                0x000000008007bc80       0x15 /usr/local/xenon/usr/lib/libxenon.a(xe.o)
 .rodata.cst4   0x0000000000000000        0x8 /usr/local/xenon/usr/lib/libxenon.a(xe.o)
 *fill*         0x000000008007bc95        0x3 00
 .rodata.__FUNCTION__.4407
                0x000000008007bc98        0xf /usr/local/xenon/usr/lib/libxenon.a(xe.o)
 *fill*         0x000000008007bca7        0x1 00
 .rodata.__FUNCTION__.4412
                0x000000008007bca8       0x10 /usr/local/xenon/usr/lib/libxenon.a(xe.o)
 .rodata.CSWTCH.65
                0x000000008007bcb8       0x19 /usr/local/xenon/usr/lib/libxenon.a(xe.o)
 *fill*         0x000000008007bcd1        0x7 00
 .rodata.__FUNCTION__.4698
                0x000000008007bcd8       0x11 /usr/local/xenon/usr/lib/libxenon.a(xe.o)
 *fill*         0x000000008007bce9        0x7 00
 .rodata.__FUNCTION__.4417
                0x000000008007bcf0        0xe /usr/local/xenon/usr/lib/libxenon.a(xe.o)
 *fill*         0x000000008007bcfe        0x2 00
 .rodata        0x000000008007bd00      0x140 /usr/local/xenon/usr/lib/libxenon.a(xenos.o)
 .rodata.str1.1
                0x000000008007be40      0x1e0 /usr/local/xenon/usr/lib/libxenon.a(xenos.o)
 .rodata.CSWTCH.21
                0x000000008007c020        0x4 /usr/local/xenon/usr/lib/libxenon.a(xenos.o)
 *fill*         0x000000008007c024        0x4 00
 .rodata.__FUNCTION__.3344
                0x000000008007c028       0x12 /usr/local/xenon/usr/lib/libxenon.a(xenos.o)
 .rodata.str1.1
                0x000000008007c03a       0x74 /usr/local/xenon/usr/lib/libxenon.a(diskio.o)
                                         0x79 (size before relaxing)
 *fill*         0x000000008007c0ae        0x2 00
 .rodata.FATLONG_NAME_SIZE
                0x000000008007c0b0        0x3 /usr/local/xenon/usr/lib/libxenon.a(fat_rb.o)
 *fill*         0x000000008007c0b3        0x5 00
 .rodata.invalid_chars.3735
                0x000000008007c0b8       0x11 /usr/local/xenon/usr/lib/libxenon.a(fat_rb.o)
 .rodata.str1.1
                0x000000008007c0c9      0x63d /usr/local/xenon/usr/lib/libxenon.a(fat_rb.o)
                                        0x642 (size before relaxing)
 *fill*         0x000000008007c706        0x2 00
 .rodata.daysinmonth.3630
                0x000000008007c708        0xc /usr/local/xenon/usr/lib/libxenon.a(fat_rb.o)
 *fill*         0x000000008007c714        0x4 00
 .rodata.invalid_chars.3691
                0x000000008007c718        0xa /usr/local/xenon/usr/lib/libxenon.a(fat_rb.o)
 *fill*         0x000000008007c722        0x6 00
 .rodata.FATLONG_NAME_POS
                0x000000008007c728        0x3 /usr/local/xenon/usr/lib/libxenon.a(fat_rb.o)
 .rodata.str1.1
                0x000000008007c72b      0x1a4 /usr/local/xenon/usr/lib/libxenon.a(file_rb.o)
 .rodata.str1.1
                0x000000008007c8cf      0x112 /usr/local/xenon/usr/lib/libxenon.a(dir_rb.o)
                                        0x141 (size before relaxing)
 .rodata.str1.1
                0x000000008007c9e1       0xba /usr/local/xenon/usr/lib/libxenon.a(iso9660.o)
 .rodata.str1.1
                0x000000008007ca9b       0x4b /usr/local/xenon/usr/lib/libxenon.a(lib_malloc.o)
 *fill*         0x000000008007cae6        0x2 00
 .rodata.ohci_xfer
                0x000000008007cae8       0x50 /usr/local/xenon/usr/lib/libxenon.a(ohci.o)
 .rodata.ohci_root_ifdsc
                0x000000008007cb38        0x9 /usr/local/xenon/usr/lib/libxenon.a(ohci.o)
 *fill*         0x000000008007cb41        0x3 00
 .rodata.ohci_revbits
                0x000000008007cb44       0x80 /usr/local/xenon/usr/lib/libxenon.a(ohci.o)
 .rodata.ohci_root_cfgdsc
                0x000000008007cbc4        0x9 /usr/local/xenon/usr/lib/libxenon.a(ohci.o)
 .rodata.str1.1
                0x000000008007cbcd       0x11 /usr/local/xenon/usr/lib/libxenon.a(ohci.o)
 .rodata.ohci_root_devdsc
                0x000000008007cbde       0x12 /usr/local/xenon/usr/lib/libxenon.a(ohci.o)
 .rodata.ohci_root_hubdsc
                0x000000008007cbf0       0x47 /usr/local/xenon/usr/lib/libxenon.a(ohci.o)
 .rodata.ohci_root_epdsc
                0x000000008007cc37        0x7 /usr/local/xenon/usr/lib/libxenon.a(ohci.o)
 .rodata.str1.1
                0x000000008007cc3e      0x100 /usr/local/xenon/usr/lib/libxenon.a(usbd.o)
 .rodata.str1.1
                0x000000008007cd3e       0x47 /usr/local/xenon/usr/lib/libxenon.a(usbdevs.o)
 .rodata.str1.1
                0x000000008007cd85       0x4a /usr/local/xenon/usr/lib/libxenon.a(usbhid.o)
 *fill*         0x000000008007cdcf        0x1 00
 .rodata.usbhid_devtypes
                0x000000008007cdd0        0xc /usr/local/xenon/usr/lib/libxenon.a(usbhid.o)
 .rodata.str1.1
                0x000000008007cddc      0x241 /usr/local/xenon/usr/lib/libxenon.a(usbhub.o)
                                        0x24a (size before relaxing)
 *fill*         0x000000008007d01d        0x3 00
 .rodata.utf8comp
                0x000000008007d020        0x6 /usr/local/xenon/usr/lib/libxenon.a(unicode_rb.o)
 .rodata.str1.1
                0x000000008007d026       0x40 /usr/local/xenon/usr/lib/libxenon.a(xenon_config.o)
 .rodata.str1.1
                0x000000008007d066       0x75 /usr/local/xenon/usr/lib/libxenon.a(disk_rb.o)
 *fill*         0x000000008007d0db        0x5 00
 .rodata.fat_partition_types
                0x000000008007d0e0        0xa /usr/local/xenon/usr/lib/libxenon.a(disk_rb.o)
 .rodata.str1.1
                0x000000008007d0ea       0x73 /usr/local/xenon/usr/lib/libxenon.a(usbctrl.o)
 *fill*         0x000000008007d15d        0x3 00
 .rodata.eptattribs.3242
                0x000000008007d160       0x10 /usr/local/xenon/usr/lib/libxenon.a(usbdebug.o)
 .rodata.str1.1
                0x000000008007d170      0x61a /usr/local/xenon/usr/lib/libxenon.a(usbdebug.o)
                                        0x672 (size before relaxing)
 .rodata.str1.1
                0x000000008007d78a      0x11d /usr/local/xenon/usr/lib/libxenon.a(xenon_sfcx.o)
 *fill*         0x000000008007d8a7        0x1 00
 .rodata        0x000000008007d8a8      0x600 /usr/local/xenon/usr/lib/libpng.a(libpng15_la-png.o)
 .rodata        0x000000008007dea8       0x5b /usr/local/xenon/usr/lib/libpng.a(libpng15_la-pngerror.o)
 *fill*         0x000000008007df03        0x5 00
 .rodata        0x000000008007df08        0xe /usr/local/xenon/usr/lib/libpng.a(libpng15_la-pngmem.o)
 *fill*         0x000000008007df16        0x2 00
 .rodata        0x000000008007df18      0x371 /usr/local/xenon/usr/lib/libpng.a(libpng15_la-pngread.o)
 *fill*         0x000000008007e289        0x7 00
 .rodata        0x000000008007e290       0x74 /usr/local/xenon/usr/lib/libpng.a(libpng15_la-pngrio.o)
 *fill*         0x000000008007e304        0x4 00
 .rodata        0x000000008007e308      0x230 /usr/local/xenon/usr/lib/libpng.a(libpng15_la-pngrtran.o)
 .rodata        0x000000008007e538     0x12b8 /usr/local/xenon/usr/lib/libpng.a(libpng15_la-pngrutil.o)
 .rodata        0x000000008007f7f0      0x430 /usr/local/xenon/usr/lib/libpng.a(libpng15_la-pngset.o)
 .rodata        0x000000008007fc20      0x300 /usr/local/xenon/usr/lib/libpng.a(libpng15_la-pngtrans.o)
 .rodata        0x000000008007ff20       0x40 /usr/local/xenon/usr/lib/libpng.a(libpng15_la-pngget.o)
 .rodata        0x000000008007ff60     0x2000 /usr/local/xenon/usr/lib/libz.a(crc32.o)
 .rodata        0x0000000080081f60      0xb32 /usr/local/xenon/usr/lib/libz.a(inflate.o)
 *fill*         0x0000000080082a92        0x6 00
 .rodata        0x0000000080082a98      0x12c /usr/local/xenon/usr/lib/libz.a(inftrees.o)
                0x0000000080082a98                inflate_copyright
 *fill*         0x0000000080082bc4        0x4 00
 .rodata        0x0000000080082bc8       0xc6 /usr/local/xenon/usr/lib/libz.a(zutil.o)
                0x0000000080082c60                z_errmsg
 *fill*         0x0000000080082c8e        0x2 00
 .rodata        0x0000000080082c90       0x54 /usr/local/xenon/usr/lib/libz.a(inffast.o)
 .rodata._ZL28read_encoded_value_with_basehjPKhPj
                0x0000000080082ce4       0x34 /usr/local/xenon/lib/gcc/xenon/4.6.0/../../../../xenon/lib/../lib/libstdc++.a(eh_personality.o)
 .rodata._ZTSSt9bad_alloc
                0x0000000080082d18        0xd /usr/local/xenon/lib/gcc/xenon/4.6.0/../../../../xenon/lib/../lib/libstdc++.a(bad_alloc.o)
                0x0000000080082d18                _ZTSSt9bad_alloc
 *fill*         0x0000000080082d25        0x3 00
 .rodata.str1.4
                0x0000000080082d28        0xf /usr/local/xenon/lib/gcc/xenon/4.6.0/../../../../xenon/lib/../lib/libstdc++.a(bad_alloc.o)
 *fill*         0x0000000080082d37        0x1 00
 .rodata._ZTSSt9exception
                0x0000000080082d38        0xd /usr/local/xenon/lib/gcc/xenon/4.6.0/../../../../xenon/lib/../lib/libstdc++.a(eh_exception.o)
                0x0000000080082d38                _ZTSSt9exception
 *fill*         0x0000000080082d45        0x3 00
 .rodata._ZTSSt13bad_exception
                0x0000000080082d48       0x12 /usr/local/xenon/lib/gcc/xenon/4.6.0/../../../../xenon/lib/../lib/libstdc++.a(eh_exception.o)
                0x0000000080082d48                _ZTSSt13bad_exception
 *fill*         0x0000000080082d5a        0x2 00
 .rodata._ZTSN10__cxxabiv115__forced_unwindE
                0x0000000080082d5c       0x20 /usr/local/xenon/lib/gcc/xenon/4.6.0/../../../../xenon/lib/../lib/libstdc++.a(eh_exception.o)
                0x0000000080082d5c                _ZTSN10__cxxabiv115__forced_unwindE
 .rodata._ZTSN10__cxxabiv119__foreign_exceptionE
                0x0000000080082d7c       0x24 /usr/local/xenon/lib/gcc/xenon/4.6.0/../../../../xenon/lib/../lib/libstdc++.a(eh_exception.o)
                0x0000000080082d7c                _ZTSN10__cxxabiv119__foreign_exceptionE
 .rodata.str1.4
                0x0000000080082da0       0x23 /usr/local/xenon/lib/gcc/xenon/4.6.0/../../../../xenon/lib/../lib/libstdc++.a(eh_exception.o)
 *fill*         0x0000000080082dc3        0x1 00
 .rodata._ZTSN10__cxxabiv117__class_type_infoE
                0x0000000080082dc4       0x22 /usr/local/xenon/lib/gcc/xenon/4.6.0/../../../../xenon/lib/../lib/libstdc++.a(class_type_info.o)
                0x0000000080082dc4                _ZTSN10__cxxabiv117__class_type_infoE
 *fill*         0x0000000080082de6        0x2 00
 .rodata._ZTSN10__cxxabiv120__si_class_type_infoE
                0x0000000080082de8       0x25 /usr/local/xenon/lib/gcc/xenon/4.6.0/../../../../xenon/lib/../lib/libstdc++.a(si_class_type_info.o)
                0x0000000080082de8                _ZTSN10__cxxabiv120__si_class_type_infoE
 *fill*         0x0000000080082e0d        0x3 00
 .rodata._ZTSSt9type_info
                0x0000000080082e10        0xd /usr/local/xenon/lib/gcc/xenon/4.6.0/../../../../xenon/lib/../lib/libstdc++.a(tinfo.o)
                0x0000000080082e10                _ZTSSt9type_info
 *fill*         0x0000000080082e1d        0x3 00
 .rodata.str1.4
                0x0000000080082e20       0x1c /usr/local/xenon/lib/gcc/xenon/4.6.0/../../../../xenon/lib/../lib/libstdc++.a(pure.o)
 .rodata.str1.4
                0x0000000080082e3c       0x94 /usr/local/xenon/lib/gcc/xenon/4.6.0/../../../../xenon/lib/../lib/libstdc++.a(vterminate.o)
 .rodata        0x0000000080082ed0      0x780 /usr/local/xenon/lib/gcc/xenon/4.6.0/../../../../xenon/lib/../lib/libstdc++.a(cp-demangle.o)
 .rodata.str1.4
                0x0000000080083650      0x6f7 /usr/local/xenon/lib/gcc/xenon/4.6.0/../../../../xenon/lib/../lib/libstdc++.a(cp-demangle.o)
                                        0x723 (size before relaxing)
 .rodata.cst4   0x0000000000000000        0x4 /usr/local/xenon/xenon/lib/32/libm.a(lib_a-s_floor.o)
 *fill*         0x0000000080083d47        0x1 00
 .rodata.cst8   0x0000000080083d48        0x8 /usr/local/xenon/xenon/lib/32/libm.a(lib_a-s_floor.o)
 .rodata.cst4   0x0000000080083d50        0x4 /usr/local/xenon/xenon/lib/32/libm.a(lib_a-s_frexp.o)
 .rodata.cst4   0x0000000080083d54       0x10 /usr/local/xenon/xenon/lib/32/libm.a(lib_a-w_pow.o)
                                         0x1c (size before relaxing)
 .rodata.str1.4
                0x0000000080083d64        0x4 /usr/local/xenon/xenon/lib/32/libm.a(lib_a-w_pow.o)
 .rodata        0x0000000080083d68       0x30 /usr/local/xenon/xenon/lib/32/libm.a(lib_a-e_pow.o)
 .rodata.cst4   0x0000000080083d98       0x18 /usr/local/xenon/xenon/lib/32/libm.a(lib_a-e_pow.o)
                                         0x30 (size before relaxing)
 .rodata.cst8   0x0000000080083db0       0xa0 /usr/local/xenon/xenon/lib/32/libm.a(lib_a-e_pow.o)
                                         0xa8 (size before relaxing)
 .rodata.str1.4
                0x0000000000000000        0x4 /usr/local/xenon/xenon/lib/32/libm.a(lib_a-e_pow.o)
                                          0x1 (size before relaxing)
 .rodata        0x0000000080083e50       0x10 /usr/local/xenon/xenon/lib/32/libm.a(lib_a-s_rint.o)
 .rodata.cst4   0x0000000080083e60        0x4 /usr/local/xenon/xenon/lib/32/libm.a(lib_a-s_scalbn.o)
                                          0x8 (size before relaxing)
 .rodata.cst8   0x0000000000000000       0x10 /usr/local/xenon/xenon/lib/32/libm.a(lib_a-s_scalbn.o)
 .rodata        0x0000000080083e64      0x51c /usr/local/xenon/lib/gcc/xenon/4.6.0/32/libgcc.a(unwind-dw2.o)
 .rodata        0x0000000080084380       0x34 /usr/local/xenon/lib/gcc/xenon/4.6.0/32/libgcc.a(unwind-dw2-fde-glibc.o)
 .rodata.str1.4
                0x00000000800843b4       0x3f /usr/local/xenon/xenon/lib/32/libc.a(lib_a-assert.o)
                                         0x43 (size before relaxing)
 *fill*         0x00000000800843f3        0x1 00
 .rodata        0x00000000800843f4      0x101 /usr/local/xenon/xenon/lib/32/libc.a(lib_a-ctype_.o)
                0x00000000800843f4                _ctype_
 *fill*         0x00000000800844f5        0x3 00
 .rodata.str1.4
                0x00000000800844f8        0x2 /usr/local/xenon/xenon/lib/32/libc.a(lib_a-impure.o)
 .rodata.str1.4
                0x0000000000000000        0x2 /usr/local/xenon/xenon/lib/32/libc.a(lib_a-puts.o)
 *fill*         0x00000000800844fa        0x6 00
 .rodata        0x0000000080084500      0x100 /usr/local/xenon/xenon/lib/32/libc.a(lib_a-strtod.o)
 .rodata.cst4   0x0000000080084600        0x8 /usr/local/xenon/xenon/lib/32/libc.a(lib_a-strtod.o)
                                         0x24 (size before relaxing)
 .rodata.cst8   0x0000000080084608       0x20 /usr/local/xenon/xenon/lib/32/libc.a(lib_a-strtod.o)
 .rodata.str1.4
                0x0000000080084628        0xa /usr/local/xenon/xenon/lib/32/libc.a(lib_a-strtod.o)
                                          0xf (size before relaxing)
 *fill*         0x0000000080084632        0x2 00
 .rodata        0x0000000080084634      0x184 /usr/local/xenon/xenon/lib/32/libc.a(lib_a-svfprintf.o)
 .rodata.cst4   0x0000000000000000        0x4 /usr/local/xenon/xenon/lib/32/libc.a(lib_a-svfprintf.o)
 .rodata.str1.4
                0x00000000800847b8       0x42 /usr/local/xenon/xenon/lib/32/libc.a(lib_a-svfprintf.o)
 *fill*         0x00000000800847fa        0x2 00
 .rodata        0x00000000800847fc      0x184 /usr/local/xenon/xenon/lib/32/libc.a(lib_a-vfiprintf.o)
 .rodata.str1.4
                0x0000000000000000       0x2f /usr/local/xenon/xenon/lib/32/libc.a(lib_a-vfiprintf.o)
 .rodata        0x0000000080084980      0x184 /usr/local/xenon/xenon/lib/32/libc.a(lib_a-vfprintf.o)
 .rodata.cst4   0x0000000000000000        0x4 /usr/local/xenon/xenon/lib/32/libc.a(lib_a-vfprintf.o)
 .rodata.str1.4
                0x0000000000000000       0x42 /usr/local/xenon/xenon/lib/32/libc.a(lib_a-vfprintf.o)
 .rodata.cst4   0x0000000080084b04        0x8 /usr/local/xenon/xenon/lib/32/libc.a(lib_a-dtoa.o)
                                         0x24 (size before relaxing)
 *fill*         0x0000000080084b0c        0x4 00
 .rodata.cst8   0x0000000080084b10       0x18 /usr/local/xenon/xenon/lib/32/libc.a(lib_a-dtoa.o)
 .rodata.str1.4
                0x0000000080084b28       0x10 /usr/local/xenon/xenon/lib/32/libc.a(lib_a-dtoa.o)
                                         0x12 (size before relaxing)
 .rodata.str1.4
                0x0000000080084b38       0x1b /usr/local/xenon/xenon/lib/32/libc.a(lib_a-gdtoa-gethex.o)
 *fill*         0x0000000080084b53        0x1 00
 .rodata.str1.4
                0x0000000080084b54        0xc /usr/local/xenon/xenon/lib/32/libc.a(lib_a-locale.o)
                                         0x16 (size before relaxing)
 .rodata        0x0000000080084b60      0x128 /usr/local/xenon/xenon/lib/32/libc.a(lib_a-mprec.o)
                0x0000000080084b70                __mprec_tinytens
                0x0000000080084b98                __mprec_bigtens
                0x0000000080084bc0                __mprec_tens
 .rodata.cst4   0x0000000000000000        0x8 /usr/local/xenon/xenon/lib/32/libc.a(lib_a-mprec.o)
 .rodata.cst4   0x0000000080084c88        0x4 /usr/local/xenon/xenon/lib/32/libc.a(lib_a-sf_nan.o)

.ctors          0x0000000080084c8c        0x0
                0x0000000080084c8c                __CTOR_LIST__ = .
 *(.ctors)
                0x0000000080084c8c                __CTOR_END__ = .

.dtors          0x0000000080084c8c        0x0
                0x0000000080084c8c                __DTOR_LIST__ = .
 *(.dtors)
                0x0000000080084c8c                __DTOR_END__ = .

.eh_frame_hdr   0x0000000080084c8c      0x51c
 *(.eh_frame_hdr)
 .eh_frame_hdr  0x0000000080084c8c      0x51c main.o

.eh_frame       0x00000000800851a8     0x1dec
 *(.eh_frame)
 .eh_frame      0x00000000800851a8        0x0 /usr/local/xenon/lib/gcc/xenon/4.6.0/32/crtbegin.o
 .eh_frame      0x00000000800851a8      0x180 main.o
                                        0x1c0 (size before relaxing)
 .eh_frame      0x0000000080085328      0x1ec Tank.o
                                        0x214 (size before relaxing)
 .eh_frame      0x0000000080085514        0x0 Tools.o
                                         0x4c (size before relaxing)
 .eh_frame      0x0000000080085514       0xac Console.o
                                        0x1b0 (size before relaxing)
 .eh_frame      0x00000000800855c0       0x70 Draw.o
                                         0xd4 (size before relaxing)
 .eh_frame      0x0000000080085630      0x174 Font.o
                                        0x1cc (size before relaxing)
 .eh_frame      0x00000000800857a4      0x120 Utils.o
                                        0x150 (size before relaxing)
 .eh_frame      0x00000000800858c4       0x40 /usr/local/xenon/lib/gcc/xenon/4.6.0/../../../../xenon/lib/../lib/libstdc++.a(new_opv.o)
 .eh_frame      0x0000000080085904      0x1ac /usr/local/xenon/lib/gcc/xenon/4.6.0/../../../../xenon/lib/../lib/libstdc++.a(eh_personality.o)
                                        0x1dc (size before relaxing)
 .eh_frame      0x0000000080085ab0       0x58 /usr/local/xenon/lib/gcc/xenon/4.6.0/../../../../xenon/lib/../lib/libstdc++.a(eh_alloc.o)
                                         0xc4 (size before relaxing)
 .eh_frame      0x0000000080085b08       0x6c /usr/local/xenon/lib/gcc/xenon/4.6.0/../../../../xenon/lib/../lib/libstdc++.a(bad_alloc.o)
                                         0x80 (size before relaxing)
 .eh_frame      0x0000000080085b74       0x20 /usr/local/xenon/lib/gcc/xenon/4.6.0/../../../../xenon/lib/../lib/libstdc++.a(del_op.o)
                                         0x34 (size before relaxing)
 .eh_frame      0x0000000080085b94       0x50 /usr/local/xenon/lib/gcc/xenon/4.6.0/../../../../xenon/lib/../lib/libstdc++.a(eh_catch.o)
                                         0x94 (size before relaxing)
 .eh_frame      0x0000000080085be4       0x30 /usr/local/xenon/lib/gcc/xenon/4.6.0/../../../../xenon/lib/../lib/libstdc++.a(new_op.o)
                                         0x4c (size before relaxing)
 .eh_frame      0x0000000080085c14       0x74 /usr/local/xenon/lib/gcc/xenon/4.6.0/../../../../xenon/lib/../lib/libstdc++.a(eh_terminate.o)
                                         0xec (size before relaxing)
 .eh_frame      0x0000000080085c88      0x168 /usr/local/xenon/lib/gcc/xenon/4.6.0/../../../../xenon/lib/../lib/libstdc++.a(eh_exception.o)
                                        0x17c (size before relaxing)
 .eh_frame      0x0000000080085df0       0x20 /usr/local/xenon/lib/gcc/xenon/4.6.0/../../../../xenon/lib/../lib/libstdc++.a(eh_call.o)
                                         0x34 (size before relaxing)
 .eh_frame      0x0000000080085e10       0x48 /usr/local/xenon/lib/gcc/xenon/4.6.0/../../../../xenon/lib/../lib/libstdc++.a(eh_globals.o)
                                         0x5c (size before relaxing)
 .eh_frame      0x0000000080085e58      0x110 /usr/local/xenon/lib/gcc/xenon/4.6.0/../../../../xenon/lib/../lib/libstdc++.a(class_type_info.o)
                                        0x124 (size before relaxing)
 .eh_frame      0x0000000080085f68       0xf0 /usr/local/xenon/lib/gcc/xenon/4.6.0/../../../../xenon/lib/../lib/libstdc++.a(si_class_type_info.o)
                                        0x104 (size before relaxing)
 .eh_frame      0x0000000080086058       0xa0 /usr/local/xenon/lib/gcc/xenon/4.6.0/../../../../xenon/lib/../lib/libstdc++.a(tinfo.o)
                                         0xb4 (size before relaxing)
 .eh_frame      0x00000000800860f8       0x64 /usr/local/xenon/lib/gcc/xenon/4.6.0/../../../../xenon/lib/../lib/libstdc++.a(eh_throw.o)
                                         0x78 (size before relaxing)
 .eh_frame      0x000000008008615c       0x20 /usr/local/xenon/lib/gcc/xenon/4.6.0/../../../../xenon/lib/../lib/libstdc++.a(pure.o)
                                         0x34 (size before relaxing)
 .eh_frame      0x000000008008617c       0x2c /usr/local/xenon/lib/gcc/xenon/4.6.0/../../../../xenon/lib/../lib/libstdc++.a(vterminate.o)
                                         0x48 (size before relaxing)
 .eh_frame      0x00000000800861a8        0x0 /usr/local/xenon/lib/gcc/xenon/4.6.0/../../../../xenon/lib/../lib/libstdc++.a(new_handler.o)
                                         0x38 (size before relaxing)
 .eh_frame      0x00000000800861a8       0x20 /usr/local/xenon/lib/gcc/xenon/4.6.0/../../../../xenon/lib/../lib/libstdc++.a(eh_type.o)
                                         0x34 (size before relaxing)
 .eh_frame      0x00000000800861c8       0x14 /usr/local/xenon/lib/gcc/xenon/4.6.0/32/libgcc.a(crtsavgpr.o)
                                         0x28 (size before relaxing)
 .eh_frame      0x00000000800861dc       0x7c /usr/local/xenon/lib/gcc/xenon/4.6.0/32/libgcc.a(crtresxgpr.o)
 .eh_frame      0x0000000080086258      0x864 /usr/local/xenon/lib/gcc/xenon/4.6.0/32/libgcc.a(unwind-dw2.o)
                                        0x878 (size before relaxing)
 .eh_frame      0x0000000080086abc      0x460 /usr/local/xenon/lib/gcc/xenon/4.6.0/32/libgcc.a(unwind-dw2-fde-glibc.o)
                                        0x474 (size before relaxing)
 .eh_frame      0x0000000080086f1c       0x38 /usr/local/xenon/lib/gcc/xenon/4.6.0/32/libgcc.a(_udivdi3.o)
                                         0x4c (size before relaxing)
 .eh_frame      0x0000000080086f54       0x3c /usr/local/xenon/lib/gcc/xenon/4.6.0/32/libgcc.a(_umoddi3.o)
                                         0x50 (size before relaxing)
 .eh_frame      0x0000000080086f90        0x4 /usr/local/xenon/lib/gcc/xenon/4.6.0/32/crtend.o

.gcc_except_table
                0x0000000080086f94       0xc4
 *(.gcc_except_table .gcc_except_table.*)
 .gcc_except_table._Znaj
                0x0000000080086f94       0x16 /usr/local/xenon/lib/gcc/xenon/4.6.0/../../../../xenon/lib/../lib/libstdc++.a(new_opv.o)
 *fill*         0x0000000080086faa        0x2 00
 .gcc_except_table.__gxx_personality_v0
                0x0000000080086fac       0x18 /usr/local/xenon/lib/gcc/xenon/4.6.0/../../../../xenon/lib/../lib/libstdc++.a(eh_personality.o)
 .gcc_except_table.__cxa_call_unexpected
                0x0000000080086fc4       0x20 /usr/local/xenon/lib/gcc/xenon/4.6.0/../../../../xenon/lib/../lib/libstdc++.a(eh_personality.o)
 .gcc_except_table._Znwj
                0x0000000080086fe4       0x1a /usr/local/xenon/lib/gcc/xenon/4.6.0/../../../../xenon/lib/../lib/libstdc++.a(new_op.o)
 *fill*         0x0000000080086ffe        0x2 00
 .gcc_except_table._ZN10__cxxabiv111__terminateEPFvvE
                0x0000000080087000       0x1d /usr/local/xenon/lib/gcc/xenon/4.6.0/../../../../xenon/lib/../lib/libstdc++.a(eh_terminate.o)
 *fill*         0x000000008008701d        0x3 00
 .gcc_except_table._ZN9__gnu_cxx27__verbose_terminate_handlerEv
                0x0000000080087020       0x38 /usr/local/xenon/lib/gcc/xenon/4.6.0/../../../../xenon/lib/../lib/libstdc++.a(vterminate.o)
                0x0000000080087058                bss_start = .

.rela.dyn       0x0000000080087058        0x0
 .rela.iplt     0x0000000000000000        0x0 /usr/local/xenon/lib/gcc/xenon/4.6.0/../../../../xenon/lib/../lib/crt1.o
 .rela.text.call_ctors
                0x0000000000000000        0x0 /usr/local/xenon/lib/gcc/xenon/4.6.0/../../../../xenon/lib/../lib/crt1.o
 .rela.got2     0x0000000000000000        0x0 /usr/local/xenon/lib/gcc/xenon/4.6.0/../../../../xenon/lib/../lib/crt1.o
 .rela.text._ZN9MyConsole4InitEv
                0x0000000000000000        0x0 /usr/local/xenon/lib/gcc/xenon/4.6.0/../../../../xenon/lib/../lib/crt1.o
 .rela.text.startup._GLOBAL__sub_I__ZN9MyConsole9RenderAppEv
                0x0000000000000000        0x0 /usr/local/xenon/lib/gcc/xenon/4.6.0/../../../../xenon/lib/../lib/crt1.o
 .rela.text._ZN3ZLX7Console6CreateEPKcjj
                0x0000000000000000        0x0 /usr/local/xenon/lib/gcc/xenon/4.6.0/../../../../xenon/lib/../lib/crt1.o
 .rela.text._ZN3ZLXL12CreateShaderEv
                0x0000000000000000        0x0 /usr/local/xenon/lib/gcc/xenon/4.6.0/../../../../xenon/lib/../lib/crt1.o
 .rela.text._ZN3ZLX4Draw16DrawGradientRectEffffjj
                0x0000000000000000        0x0 /usr/local/xenon/lib/gcc/xenon/4.6.0/../../../../xenon/lib/../lib/crt1.o
 .rela.text._ZN3ZLX4Draw16DrawTexturedRectEffffP12XenosSurface
                0x0000000000000000        0x0 /usr/local/xenon/lib/gcc/xenon/4.6.0/../../../../xenon/lib/../lib/crt1.o
 .rela.text._ZN3ZLX4Draw20DrawClipTexturedRectEffffffffP12XenosSurface
                0x0000000000000000        0x0 /usr/local/xenon/lib/gcc/xenon/4.6.0/../../../../xenon/lib/../lib/crt1.o
 .rela.text._ZN3ZLX4Draw15DrawColoredRectEffffj
                0x0000000000000000        0x0 /usr/local/xenon/lib/gcc/xenon/4.6.0/../../../../xenon/lib/../lib/crt1.o
 .rela.text._ZN3ZLX4Font16CreateFontShaderEv
                0x0000000000000000        0x0 /usr/local/xenon/lib/gcc/xenon/4.6.0/../../../../xenon/lib/../lib/crt1.o
 .rela.text._ZN3ZLX4Font8DrawTextEPKcjff
                0x0000000000000000        0x0 /usr/local/xenon/lib/gcc/xenon/4.6.0/../../../../xenon/lib/../lib/crt1.o
 .rela.text._ZN3ZLX4Font5BeginEv
                0x0000000000000000        0x0 /usr/local/xenon/lib/gcc/xenon/4.6.0/../../../../xenon/lib/../lib/crt1.o
 .rela.text._ZN3ZLX17loadPNGFromMemoryEPh
                0x0000000000000000        0x0 /usr/local/xenon/lib/gcc/xenon/4.6.0/../../../../xenon/lib/../lib/crt1.o
 .rela.text._ZN3ZLX15InitialiseVideoEv
                0x0000000000000000        0x0 /usr/local/xenon/lib/gcc/xenon/4.6.0/../../../../xenon/lib/../lib/crt1.o
 .rela.text     0x0000000000000000        0x0 /usr/local/xenon/lib/gcc/xenon/4.6.0/../../../../xenon/lib/../lib/crt1.o
 .rela.text.xenon_ata_init
                0x0000000000000000        0x0 /usr/local/xenon/lib/gcc/xenon/4.6.0/../../../../xenon/lib/../lib/crt1.o
 .rela.text.xenon_atapi_init
                0x0000000000000000        0x0 /usr/local/xenon/lib/gcc/xenon/4.6.0/../../../../xenon/lib/../lib/crt1.o
 .rela.text.sbrk
                0x0000000000000000        0x0 /usr/local/xenon/lib/gcc/xenon/4.6.0/../../../../xenon/lib/../lib/crt1.o
 .rela.text.usb_init_one_ohci
                0x0000000000000000        0x0 /usr/local/xenon/lib/gcc/xenon/4.6.0/../../../../xenon/lib/../lib/crt1.o
 .rela.text.usb_do_poll
                0x0000000000000000        0x0 /usr/local/xenon/lib/gcc/xenon/4.6.0/../../../../xenon/lib/../lib/crt1.o
 .rela.text.EHCI_do_one
                0x0000000000000000        0x0 /usr/local/xenon/lib/gcc/xenon/4.6.0/../../../../xenon/lib/../lib/crt1.o
 .rela.text.USBStorage_Init
                0x0000000000000000        0x0 /usr/local/xenon/lib/gcc/xenon/4.6.0/../../../../xenon/lib/../lib/crt1.o
 .rela.text.edram_p2
                0x0000000000000000        0x0 /usr/local/xenon/lib/gcc/xenon/4.6.0/../../../../xenon/lib/../lib/crt1.o
 .rela.text.edram_init_state1
                0x0000000000000000        0x0 /usr/local/xenon/lib/gcc/xenon/4.6.0/../../../../xenon/lib/../lib/crt1.o
 .rela.text.edram_72c
                0x0000000000000000        0x0 /usr/local/xenon/lib/gcc/xenon/4.6.0/../../../../xenon/lib/../lib/crt1.o
 .rela.text.edram_974
                0x0000000000000000        0x0 /usr/local/xenon/lib/gcc/xenon/4.6.0/../../../../xenon/lib/../lib/crt1.o
 .rela.text.edram_9e4
                0x0000000000000000        0x0 /usr/local/xenon/lib/gcc/xenon/4.6.0/../../../../xenon/lib/../lib/crt1.o
 .rela.text.edram_bec
                0x0000000000000000        0x0 /usr/local/xenon/lib/gcc/xenon/4.6.0/../../../../xenon/lib/../lib/crt1.o
 .rela.text.edram_4c
                0x0000000000000000        0x0 /usr/local/xenon/lib/gcc/xenon/4.6.0/../../../../xenon/lib/../lib/crt1.o
 .rela.text.edram_init
                0x0000000000000000        0x0 /usr/local/xenon/lib/gcc/xenon/4.6.0/../../../../xenon/lib/../lib/crt1.o
 .rela.text.Xe_pMasterInit
                0x0000000000000000        0x0 /usr/local/xenon/lib/gcc/xenon/4.6.0/../../../../xenon/lib/../lib/crt1.o
 .rela.text.determine_filesystem
                0x0000000000000000        0x0 /usr/local/xenon/lib/gcc/xenon/4.6.0/../../../../xenon/lib/../lib/crt1.o
 .rela.text.register_bdev
                0x0000000000000000        0x0 /usr/local/xenon/lib/gcc/xenon/4.6.0/../../../../xenon/lib/../lib/crt1.o
 .rela.text.bdev_open
                0x0000000000000000        0x0 /usr/local/xenon/lib/gcc/xenon/4.6.0/../../../../xenon/lib/../lib/crt1.o
 .rela.text.bdev_enum
                0x0000000000000000        0x0 /usr/local/xenon/lib/gcc/xenon/4.6.0/../../../../xenon/lib/../lib/crt1.o
 .rela.text.cache_fat_sector
                0x0000000000000000        0x0 /usr/local/xenon/lib/gcc/xenon/4.6.0/../../../../xenon/lib/../lib/crt1.o
 .rela.text.flush_fat
                0x0000000000000000        0x0 /usr/local/xenon/lib/gcc/xenon/4.6.0/../../../../xenon/lib/../lib/crt1.o
 .rela.text.fat_lock
                0x0000000000000000        0x0 /usr/local/xenon/lib/gcc/xenon/4.6.0/../../../../xenon/lib/../lib/crt1.o
 .rela.text.fat_unlock
                0x0000000000000000        0x0 /usr/local/xenon/lib/gcc/xenon/4.6.0/../../../../xenon/lib/../lib/crt1.o
 .rela.text.fat_init
                0x0000000000000000        0x0 /usr/local/xenon/lib/gcc/xenon/4.6.0/../../../../xenon/lib/../lib/crt1.o
 .rela.text.fat_unmount
                0x0000000000000000        0x0 /usr/local/xenon/lib/gcc/xenon/4.6.0/../../../../xenon/lib/../lib/crt1.o
 .rela.text.add_dir_entry
                0x0000000000000000        0x0 /usr/local/xenon/lib/gcc/xenon/4.6.0/../../../../xenon/lib/../lib/crt1.o
 .rela.text.fat_getnext
                0x0000000000000000        0x0 /usr/local/xenon/lib/gcc/xenon/4.6.0/../../../../xenon/lib/../lib/crt1.o
 .rela.text.find_object
                0x0000000000000000        0x0 /usr/local/xenon/lib/gcc/xenon/4.6.0/../../../../xenon/lib/../lib/crt1.o
 .rela.text._iso9660_readdir
                0x0000000000000000        0x0 /usr/local/xenon/lib/gcc/xenon/4.6.0/../../../../xenon/lib/../lib/crt1.o
 .rela.text.kmem_init
                0x0000000000000000        0x0 /usr/local/xenon/lib/gcc/xenon/4.6.0/../../../../xenon/lib/../lib/crt1.o
 .rela.text._ohci_dma_alloc
                0x0000000000000000        0x0 /usr/local/xenon/lib/gcc/xenon/4.6.0/../../../../xenon/lib/../lib/crt1.o
 .rela.text.ohci_create
                0x0000000000000000        0x0 /usr/local/xenon/lib/gcc/xenon/4.6.0/../../../../xenon/lib/../lib/crt1.o
 .rela.text.usb_create_pipe
                0x0000000000000000        0x0 /usr/local/xenon/lib/gcc/xenon/4.6.0/../../../../xenon/lib/../lib/crt1.o
 .rela.text.usb_destroy_pipe
                0x0000000000000000        0x0 /usr/local/xenon/lib/gcc/xenon/4.6.0/../../../../xenon/lib/../lib/crt1.o
 .rela.text.usb_destroy_all_pipes
                0x0000000000000000        0x0 /usr/local/xenon/lib/gcc/xenon/4.6.0/../../../../xenon/lib/../lib/crt1.o
 .rela.text.usb_destroy_device
                0x0000000000000000        0x0 /usr/local/xenon/lib/gcc/xenon/4.6.0/../../../../xenon/lib/../lib/crt1.o
 .rela.text.usb_create_device
                0x0000000000000000        0x0 /usr/local/xenon/lib/gcc/xenon/4.6.0/../../../../xenon/lib/../lib/crt1.o
 .rela.text.usb_make_request
                0x0000000000000000        0x0 /usr/local/xenon/lib/gcc/xenon/4.6.0/../../../../xenon/lib/../lib/crt1.o
 .rela.text.usb_free_request
                0x0000000000000000        0x0 /usr/local/xenon/lib/gcc/xenon/4.6.0/../../../../xenon/lib/../lib/crt1.o
 .rela.text.usb_clear_stall
                0x0000000000000000        0x0 /usr/local/xenon/lib/gcc/xenon/4.6.0/../../../../xenon/lib/../lib/crt1.o
 .rela.text.usb_std_request
                0x0000000000000000        0x0 /usr/local/xenon/lib/gcc/xenon/4.6.0/../../../../xenon/lib/../lib/crt1.o
 .rela.text.usb_get_string
                0x0000000000000000        0x0 /usr/local/xenon/lib/gcc/xenon/4.6.0/../../../../xenon/lib/../lib/crt1.o
 .rela.text.usb_get_device_descriptor
                0x0000000000000000        0x0 /usr/local/xenon/lib/gcc/xenon/4.6.0/../../../../xenon/lib/../lib/crt1.o
 .rela.text.usb_get_config_descriptor
                0x0000000000000000        0x0 /usr/local/xenon/lib/gcc/xenon/4.6.0/../../../../xenon/lib/../lib/crt1.o
 .rela.text.usb_initroot
                0x0000000000000000        0x0 /usr/local/xenon/lib/gcc/xenon/4.6.0/../../../../xenon/lib/../lib/crt1.o
 .rela.data.usb_drivers
                0x0000000000000000        0x0 /usr/local/xenon/lib/gcc/xenon/4.6.0/../../../../xenon/lib/../lib/crt1.o
 .rela.text.usbhid_attach
                0x0000000000000000        0x0 /usr/local/xenon/lib/gcc/xenon/4.6.0/../../../../xenon/lib/../lib/crt1.o
 .rela.text.usbhub_detach
                0x0000000000000000        0x0 /usr/local/xenon/lib/gcc/xenon/4.6.0/../../../../xenon/lib/../lib/crt1.o
 .rela.text.usbhub_attach
                0x0000000000000000        0x0 /usr/local/xenon/lib/gcc/xenon/4.6.0/../../../../xenon/lib/../lib/crt1.o
 .rela.text.usbhub_scan1
                0x0000000000000000        0x0 /usr/local/xenon/lib/gcc/xenon/4.6.0/../../../../xenon/lib/../lib/crt1.o
 .rela.text.xenon_config_init
                0x0000000000000000        0x0 /usr/local/xenon/lib/gcc/xenon/4.6.0/../../../../xenon/lib/../lib/crt1.o
 .rela.text.storage_read_sectors
                0x0000000000000000        0x0 /usr/local/xenon/lib/gcc/xenon/4.6.0/../../../../xenon/lib/../lib/crt1.o
 .rela.text.storage_write_sectors
                0x0000000000000000        0x0 /usr/local/xenon/lib/gcc/xenon/4.6.0/../../../../xenon/lib/../lib/crt1.o
 .rela.text.usbctrl_attach
                0x0000000000000000        0x0 /usr/local/xenon/lib/gcc/xenon/4.6.0/../../../../xenon/lib/../lib/crt1.o
 .rela.gcc_except_table._Znaj
                0x0000000000000000        0x0 /usr/local/xenon/lib/gcc/xenon/4.6.0/../../../../xenon/lib/../lib/crt1.o
 .rela.data.DW.ref._ZTISt9bad_alloc
                0x0000000000000000        0x0 /usr/local/xenon/lib/gcc/xenon/4.6.0/../../../../xenon/lib/../lib/crt1.o
 .rela.data.DW.ref.__gxx_personality_v0
                0x0000000000000000        0x0 /usr/local/xenon/lib/gcc/xenon/4.6.0/../../../../xenon/lib/../lib/crt1.o
 .rela.eh_frame
                0x0000000000000000        0x0 /usr/local/xenon/lib/gcc/xenon/4.6.0/../../../../xenon/lib/../lib/crt1.o
 .rela.data.rel.ro._ZTISt9bad_alloc
                0x0000000000000000        0x0 /usr/local/xenon/lib/gcc/xenon/4.6.0/../../../../xenon/lib/../lib/crt1.o
 .rela.data.rel.ro._ZTVSt9bad_alloc
                0x0000000000000000        0x0 /usr/local/xenon/lib/gcc/xenon/4.6.0/../../../../xenon/lib/../lib/crt1.o
 .rela.gcc_except_table._Znwj
                0x0000000000000000        0x0 /usr/local/xenon/lib/gcc/xenon/4.6.0/../../../../xenon/lib/../lib/crt1.o
 .rela.data.rel.ro._ZTISt9exception
                0x0000000000000000        0x0 /usr/local/xenon/lib/gcc/xenon/4.6.0/../../../../xenon/lib/../lib/crt1.o
 .rela.data.rel.ro._ZTISt13bad_exception
                0x0000000000000000        0x0 /usr/local/xenon/lib/gcc/xenon/4.6.0/../../../../xenon/lib/../lib/crt1.o
 .rela.data.rel.ro._ZTIN10__cxxabiv115__forced_unwindE
                0x0000000000000000        0x0 /usr/local/xenon/lib/gcc/xenon/4.6.0/../../../../xenon/lib/../lib/crt1.o
 .rela.data.rel.ro._ZTIN10__cxxabiv119__foreign_exceptionE
                0x0000000000000000        0x0 /usr/local/xenon/lib/gcc/xenon/4.6.0/../../../../xenon/lib/../lib/crt1.o
 .rela.data.rel.ro._ZTVSt9exception
                0x0000000000000000        0x0 /usr/local/xenon/lib/gcc/xenon/4.6.0/../../../../xenon/lib/../lib/crt1.o
 .rela.data.rel.ro._ZTVSt13bad_exception
                0x0000000000000000        0x0 /usr/local/xenon/lib/gcc/xenon/4.6.0/../../../../xenon/lib/../lib/crt1.o
 .rela.data.rel.ro._ZTVN10__cxxabiv115__forced_unwindE
                0x0000000000000000        0x0 /usr/local/xenon/lib/gcc/xenon/4.6.0/../../../../xenon/lib/../lib/crt1.o
 .rela.data.rel.ro._ZTVN10__cxxabiv119__foreign_exceptionE
                0x0000000000000000        0x0 /usr/local/xenon/lib/gcc/xenon/4.6.0/../../../../xenon/lib/../lib/crt1.o
 .rela.data.rel.ro._ZTIN10__cxxabiv117__class_type_infoE
                0x0000000000000000        0x0 /usr/local/xenon/lib/gcc/xenon/4.6.0/../../../../xenon/lib/../lib/crt1.o
 .rela.data.rel.ro._ZTVN10__cxxabiv117__class_type_infoE
                0x0000000000000000        0x0 /usr/local/xenon/lib/gcc/xenon/4.6.0/../../../../xenon/lib/../lib/crt1.o
 .rela.data.rel._ZN10__cxxabiv119__terminate_handlerE
                0x0000000000000000        0x0 /usr/local/xenon/lib/gcc/xenon/4.6.0/../../../../xenon/lib/../lib/crt1.o
 .rela.data.rel.ro._ZTIN10__cxxabiv120__si_class_type_infoE
                0x0000000000000000        0x0 /usr/local/xenon/lib/gcc/xenon/4.6.0/../../../../xenon/lib/../lib/crt1.o
 .rela.data.rel.ro._ZTVN10__cxxabiv120__si_class_type_infoE
                0x0000000000000000        0x0 /usr/local/xenon/lib/gcc/xenon/4.6.0/../../../../xenon/lib/../lib/crt1.o
 .rela.data.rel.ro._ZTISt9type_info
                0x0000000000000000        0x0 /usr/local/xenon/lib/gcc/xenon/4.6.0/../../../../xenon/lib/../lib/crt1.o
 .rela.data.rel.ro._ZTVSt9type_info
                0x0000000000000000        0x0 /usr/local/xenon/lib/gcc/xenon/4.6.0/../../../../xenon/lib/../lib/crt1.o
 .rela.gcc_except_table._ZN9__gnu_cxx27__verbose_terminate_handlerEv
                0x0000000000000000        0x0 /usr/local/xenon/lib/gcc/xenon/4.6.0/../../../../xenon/lib/../lib/crt1.o
 .rela.data.DW.ref._ZTISt9exception
                0x0000000000000000        0x0 /usr/local/xenon/lib/gcc/xenon/4.6.0/../../../../xenon/lib/../lib/crt1.o

.bss            0x0000000080087060   0x25a2b4
 *(.bss*)
 .bss.cApp      0x0000000080087060      0x3d0 main.o
                0x0000000080087060                cApp
 .bss._ZL12pFontTexture
                0x0000000080087430        0x4 Console.o
 .bss._ZN3ZLXL14isShaderLoadedE
                0x0000000080087434        0x4 Draw.o
 .bss._ZN3ZLXL15m_pVertexShaderE
                0x0000000080087438        0x4 Draw.o
 .bss._ZN3ZLXL14m_pPixelShaderE
                0x000000008008743c        0x4 Draw.o
 .bss._ZN3ZLXL22m_pPixelTexturedShaderE
                0x0000000080087440        0x4 Draw.o
 .bss._ZN3ZLXL15FontVerticePoolE
                0x0000000080087444     0x5000 Font.o
 .bss._ZN3ZLXL20p_fontVerticesBufferE
                0x000000008008c444        0x4 Font.o
 .bss._ZN3ZLXL18isVideoInitialisedE
                0x000000008008c448        0x4 Utils.o
 .bss._xe       0x000000008008c44c     0x2520 zlx.o
                0x000000008008c44c                _xe
 .bss.valid     0x000000008008e96c       0x10 /usr/local/xenon/usr/lib/libxenon.a(input.o)
 .bss.ctrl      0x000000008008e97c      0x120 /usr/local/xenon/usr/lib/libxenon.a(input.o)
 .bss.initdone.3631
                0x000000008008ea9c        0x4 /usr/local/xenon/usr/lib/libxenon.a(usbmain.o)
 .bss.in_poll.3618
                0x000000008008eaa0        0x4 /usr/local/xenon/usr/lib/libxenon.a(usbmain.o)
 .bss.__bdev    0x000000008008eaa4        0x4 /usr/local/xenon/usr/lib/libxenon.a(tinyehci.o)
 .bss.ums_init_done
                0x000000008008eaa8        0x4 /usr/local/xenon/usr/lib/libxenon.a(tinyehci.o)
 .bss.__mounted
                0x000000008008eaac        0x1 /usr/local/xenon/usr/lib/libxenon.a(tinyehci.o)
 .bss.udd.4136  0x000000008008eaad       0x16 /usr/local/xenon/usr/lib/libxenon.a(tinyehci.o)
 *fill*         0x000000008008eac3        0x1 00
 .bss.__ehci    0x000000008008eac4        0x4 /usr/local/xenon/usr/lib/libxenon.a(tinyehci.o)
 .bss._old_udd  0x000000008008eac8       0x16 /usr/local/xenon/usr/lib/libxenon.a(tinyehci.o)
 .bss.__vid     0x000000008008eade        0x2 /usr/local/xenon/usr/lib/libxenon.a(tinyehci.o)
 .bss.__usbfd   0x000000008008eae0       0xa4 /usr/local/xenon/usr/lib/libxenon.a(tinyehci.o)
 .bss.__pid     0x000000008008eb84        0x2 /usr/local/xenon/usr/lib/libxenon.a(tinyehci.o)
 *fill*         0x000000008008eb86        0x2 00
 .bss.base.3864
                0x000000008008eb88        0x4 /usr/local/xenon/usr/lib/libxenon.a(edram.o)
 .bss.ptr.3865  0x000000008008eb8c        0x4 /usr/local/xenon/usr/lib/libxenon.a(edram.o)
 .bss.xenos_current_mode
                0x000000008008eb90        0x4 /usr/local/xenon/usr/lib/libxenon.a(xenos.o)
 .bss.fat_cache_sectors
                0x000000008008eb94     0x4000 /usr/local/xenon/usr/lib/libxenon.a(fat_rb.o)
 .bss.fat_bpbs  0x0000000080092b94      0x640 /usr/local/xenon/usr/lib/libxenon.a(fat_rb.o)
 .bss.initialized
                0x00000000800931d4        0x1 /usr/local/xenon/usr/lib/libxenon.a(fat_rb.o)
 *fill*         0x00000000800931d5        0x3 00
 .bss.fat_cache
                0x00000000800931d8      0x180 /usr/local/xenon/usr/lib/libxenon.a(fat_rb.o)
 .bss.openfiles
                0x0000000080093358     0x8f00 /usr/local/xenon/usr/lib/libxenon.a(file_rb.o)
 .bss.opendirs  0x000000008009c258     0x2ae0 /usr/local/xenon/usr/lib/libxenon.a(dir_rb.o)
 .bss.fh_mutex  0x000000008009ed38        0x4 /usr/local/xenon/usr/lib/libxenon.a(iso9660.o)
 .bss.joliet    0x000000008009ed3c        0x4 /usr/local/xenon/usr/lib/libxenon.a(iso9660.o)
 .bss.icache    0x000000008009ed40       0x40 /usr/local/xenon/usr/lib/libxenon.a(iso9660.o)
 .bss.percd_done
                0x000000008009ed80        0x4 /usr/local/xenon/usr/lib/libxenon.a(iso9660.o)
 .bss.dcache    0x000000008009ed84       0x40 /usr/local/xenon/usr/lib/libxenon.a(iso9660.o)
 .bss.iso9660_dev
                0x000000008009edc4        0x4 /usr/local/xenon/usr/lib/libxenon.a(iso9660.o)
 .bss.root_size
                0x000000008009edc8        0x4 /usr/local/xenon/usr/lib/libxenon.a(iso9660.o)
 .bss.root_dirent
                0x000000008009edcc       0x22 /usr/local/xenon/usr/lib/libxenon.a(iso9660.o)
 *fill*         0x000000008009edee        0x2 00
 .bss.cache_mutex
                0x000000008009edf0        0x4 /usr/local/xenon/usr/lib/libxenon.a(iso9660.o)
 .bss.fh        0x000000008009edf4      0x940 /usr/local/xenon/usr/lib/libxenon.a(iso9660.o)
 .bss.root_extent
                0x000000008009f734        0x4 /usr/local/xenon/usr/lib/libxenon.a(iso9660.o)
 .bss.kmem_init_done
                0x000000008009f738        0x4 /usr/local/xenon/usr/lib/libxenon.a(lib_malloc.o)
 *fill*         0x000000008009f73c        0x4 00
 .bss.heap      0x000000008009f740   0x100000 /usr/local/xenon/usr/lib/libxenon.a(lib_malloc.o)
 .bss.aligned_mem
                0x000000008019f740        0x4 /usr/local/xenon/usr/lib/libxenon.a(usb_os.o)
 .bss.aligned_base
                0x000000008019f744        0x4 /usr/local/xenon/usr/lib/libxenon.a(usb_os.o)
 *fill*         0x000000008019f748       0x18 00
 .bss.heapspace
                0x000000008019f760    0x40000 /usr/local/xenon/usr/lib/libxenon.a(usb_os.o)
 .bss.sfcx_page
                0x00000000801df760      0x210 /usr/local/xenon/usr/lib/libxenon.a(xenon_config.o)
 .bss.secured_settings
                0x00000000801df970      0x208 /usr/local/xenon/usr/lib/libxenon.a(xenon_config.o)
                0x00000000801df970                secured_settings
 .bss.xenon_config_initialized
                0x00000000801dfb78        0x4 /usr/local/xenon/usr/lib/libxenon.a(xenon_config.o)
 .bss.part      0x00000000801dfb7c      0x300 /usr/local/xenon/usr/lib/libxenon.a(disk_rb.o)
 *fill*         0x00000000801dfe7c        0x4 00
 .bss.block_cache_lba
                0x00000000801dfe80       0x80 /usr/local/xenon/usr/lib/libxenon.a(disk_rb.o)
 .bss.block_cache
                0x00000000801dff00   0x100000 /usr/local/xenon/usr/lib/libxenon.a(disk_rb.o)
 .bss.vol_drive
                0x00000000802dff00       0x40 /usr/local/xenon/usr/lib/libxenon.a(disk_rb.o)
 .bss.controller_mask
                0x00000000802dff40        0x4 /usr/local/xenon/usr/lib/libxenon.a(usbctrl.o)
 *fill*         0x00000000802dff44        0x4 00
 .bss.buf.3229  0x00000000802dff48      0x100 /usr/local/xenon/usr/lib/libxenon.a(usbdebug.o)
 .bss.sfc       0x00000000802e0048       0x44 /usr/local/xenon/usr/lib/libxenon.a(xenon_sfcx.o)
                0x00000000802e0048                sfc
 .bss._ZL15dependents_used
                0x00000000802e008c        0x4 /usr/local/xenon/lib/gcc/xenon/4.6.0/../../../../xenon/lib/../lib/libstdc++.a(eh_alloc.o)
 .bss._ZL17dependents_buffer
                0x00000000802e0090      0x140 /usr/local/xenon/lib/gcc/xenon/4.6.0/../../../../xenon/lib/../lib/libstdc++.a(eh_alloc.o)
 .bss._ZL14emergency_used
                0x00000000802e01d0        0x4 /usr/local/xenon/lib/gcc/xenon/4.6.0/../../../../xenon/lib/../lib/libstdc++.a(eh_alloc.o)
 *fill*         0x00000000802e01d4        0xc 00
 .bss._ZL16emergency_buffer
                0x00000000802e01e0      0x800 /usr/local/xenon/lib/gcc/xenon/4.6.0/../../../../xenon/lib/../lib/libstdc++.a(eh_alloc.o)
 .bss._ZL10eh_globals
                0x00000000802e09e0        0x8 /usr/local/xenon/lib/gcc/xenon/4.6.0/../../../../xenon/lib/../lib/libstdc++.a(eh_globals.o)
 .bss._ZZN9__gnu_cxx27__verbose_terminate_handlerEvE11terminating
                0x00000000802e09e8        0x1 /usr/local/xenon/lib/gcc/xenon/4.6.0/../../../../xenon/lib/../lib/libstdc++.a(vterminate.o)
 *fill*         0x00000000802e09e9        0x3 00
 .bss.__new_handler
                0x00000000802e09ec        0x4 /usr/local/xenon/lib/gcc/xenon/4.6.0/../../../../xenon/lib/../lib/libstdc++.a(new_handler.o)
                0x00000000802e09ec                __new_handler
 .bss           0x00000000802e09f0       0x98 /usr/local/xenon/lib/gcc/xenon/4.6.0/32/libgcc.a(unwind-dw2.o)
 .bss           0x00000000802e0a88       0x14 /usr/local/xenon/lib/gcc/xenon/4.6.0/32/libgcc.a(unwind-dw2-fde-glibc.o)
 .bss           0x00000000802e0a9c       0x28 /usr/local/xenon/xenon/lib/32/libc.a(lib_a-mallocr.o)
                0x00000000802e0a9c                __malloc_current_mallinfo
 COMMON         0x00000000802e0ac4       0x48 /usr/local/xenon/usr/lib/libxenon.a(ata.o)
                0x00000000802e0ac4                atapi
                0x00000000802e0ae8                ata
 COMMON         0x00000000802e0b0c       0x10 /usr/local/xenon/usr/lib/libxenon.a(usbmain.o)
                0x00000000802e0b0c                usb_buses
 COMMON         0x00000000802e0b1c      0x340 /usr/local/xenon/usr/lib/libxenon.a(tinyehci.o)
                0x00000000802e0b1c                ehci_hcds
 COMMON         0x00000000802e0e5c       0x28 /usr/local/xenon/usr/lib/libxenon.a(edram.o)
                0x00000000802e0e5c                reloc
 *fill*         0x00000000802e0e84        0x4 00
 COMMON         0x00000000802e0e88      0x380 /usr/local/xenon/usr/lib/libxenon.a(diskio.o)
                0x00000000802e0e88                devices
 COMMON         0x00000000802e1208        0xc /usr/local/xenon/usr/lib/libxenon.a(lib_malloc.o)
                0x00000000802e1208                kmempool
 COMMON         0x00000000802e1214      0x100 /usr/local/xenon/xenon/lib/32/libc.a(lib_a-gdtoa-gethex.o)
                0x00000000802e1214                __hexdig

.iplt           0x00000000802e1320        0x0 load address 0x00000000802e1314
 .iplt          0x0000000000000000        0x0 /usr/local/xenon/lib/gcc/xenon/4.6.0/../../../../xenon/lib/../lib/crt1.o

.sbss           0x00000000802e1314       0x50
 *(.sbss*)
 .sbss          0x0000000000000000        0x0 /usr/local/xenon/lib/gcc/xenon/4.6.0/../../../../xenon/lib/../lib/crt1.o
 .sbss._ZN3ZLX6offsetE
                0x00000000802e1314        0x4 Utils.o
                0x00000000802e1314                _ZN3ZLX6offsetE
 .sbss.fb       0x00000000802e1318        0x4 zlx.o
                0x00000000802e1318                fb
 .sbss._ZN3ZLX14g_pVideoDeviceE
                0x00000000802e131c        0x4 zlx.o
                0x00000000802e131c                _ZN3ZLX14g_pVideoDeviceE
 .sbss.stdout_hook
                0x00000000802e1320        0x4 /usr/local/xenon/usr/lib/libxenon.a(newlib.o)
                0x00000000802e1320                stdout_hook
 .sbss          0x00000000802e1324        0x4 /usr/local/xenon/usr/lib/libxenon.a(newlib.o)
                0x00000000802e1324                heap_ptr
 .sbss.usb_initialized
                0x00000000802e1328        0x4 /usr/local/xenon/usr/lib/libxenon.a(usbmain.o)
                0x00000000802e1328                usb_initialized
 .sbss.usb_buscnt
                0x00000000802e132c        0x4 /usr/local/xenon/usr/lib/libxenon.a(usbmain.o)
                0x00000000802e132c                usb_buscnt
 .sbss.try_status
                0x00000000802e1330        0x4 /usr/local/xenon/usr/lib/libxenon.a(tinyehci.o)
                0x00000000802e1330                try_status
 .sbss.unplug_device
                0x00000000802e1334        0x4 /usr/local/xenon/usr/lib/libxenon.a(tinyehci.o)
                0x00000000802e1334                unplug_device
 .sbss.handshake_mode
                0x00000000802e1338        0x4 /usr/local/xenon/usr/lib/libxenon.a(tinyehci.o)
                0x00000000802e1338                handshake_mode
 .sbss.edram_id
                0x00000000802e133c        0x4 /usr/local/xenon/usr/lib/libxenon.a(edram.o)
                0x00000000802e133c                edram_id
 .sbss.edram_rev
                0x00000000802e1340        0x4 /usr/local/xenon/usr/lib/libxenon.a(edram.o)
                0x00000000802e1340                edram_rev
 .sbss.stat_alu_uploaded
                0x00000000802e1344        0x4 /usr/local/xenon/usr/lib/libxenon.a(xe.o)
                0x00000000802e1344                stat_alu_uploaded
 .sbss.xenos_id
                0x00000000802e1348        0x4 /usr/local/xenon/usr/lib/libxenon.a(xenos.o)
                0x00000000802e1348                xenos_id
 .sbss          0x00000000802e134c        0x4 /usr/local/xenon/usr/lib/libxenon.a(fat_rb.o)
                0x00000000802e134c                cache_mutex
 .sbss.usb_noisy
                0x00000000802e1350        0x4 /usr/local/xenon/usr/lib/libxenon.a(usbd.o)
                0x00000000802e1350                usb_noisy
 .sbss          0x00000000802e1354        0xc /usr/local/xenon/xenon/lib/32/libc.a(lib_a-mallocr.o)
                0x00000000802e1354                __malloc_max_total_mem
                0x00000000802e1358                __malloc_max_sbrked_mem
                0x00000000802e135c                __malloc_top_pad
 .sbss          0x00000000802e1360        0x4 /usr/local/xenon/xenon/lib/32/libc.a(lib_a-reent.o)
                0x00000000802e1360                errno
                0x00000000802e1364                bss_end = .
                0x00000000802e1364                heap_begin = .
                0x0000000090000000                . = 0x90000000
                0x0000000090000000                __libc_stack_end = .
                0x0000000090000000                heap_end = .
                0x00000000a0000000                . = 0xa0000000
OUTPUT(/home/jqe/Documents/Tanks/Tanks.elf elf32-powerpc)

.debug_info     0x0000000000000000    0x6dde6
 .debug_info    0x0000000000000000       0xae /usr/local/xenon/lib/gcc/xenon/4.6.0/../../../../xenon/lib/../lib/crt1.o
 .debug_info    0x00000000000000ae     0x2218 main.o
 .debug_info    0x00000000000022c6      0xdf3 Tank.o
 .debug_info    0x00000000000030b9      0x152 Tools.o
 .debug_info    0x000000000000320b     0x1407 Console.o
 .debug_info    0x0000000000004612      0xda7 Draw.o
 .debug_info    0x00000000000053b9     0x145d Font.o
 .debug_info    0x0000000000006816     0x1cef Utils.o
 .debug_info    0x0000000000008505      0x7ca zlx.o
 .debug_info    0x0000000000008ccf     0x168d /usr/local/xenon/usr/lib/libxenon.a(ata.o)
 .debug_info    0x000000000000a35c      0x23c /usr/local/xenon/usr/lib/libxenon.a(input.o)
 .debug_info    0x000000000000a598      0xe6a /usr/local/xenon/usr/lib/libxenon.a(newlib.o)
 .debug_info    0x000000000000b402       0x99 /usr/local/xenon/usr/lib/libxenon.a(vm.o)
 .debug_info    0x000000000000b49b      0x1f2 /usr/local/xenon/usr/lib/libxenon.a(time.o)
 .debug_info    0x000000000000b68d      0x942 /usr/local/xenon/usr/lib/libxenon.a(usbmain.o)
 .debug_info    0x000000000000bfcf     0x3692 /usr/local/xenon/usr/lib/libxenon.a(tinyehci.o)
 .debug_info    0x000000000000f661      0x462 /usr/local/xenon/usr/lib/libxenon.a(xenon_smc.o)
 .debug_info    0x000000000000fac3       0xe7 /usr/local/xenon/usr/lib/libxenon.a(xenon_uart.o)
 .debug_info    0x000000000000fbaa     0x102c /usr/local/xenon/usr/lib/libxenon.a(edram.o)
 .debug_info    0x0000000000010bd6     0x4202 /usr/local/xenon/usr/lib/libxenon.a(xe.o)
 .debug_info    0x0000000000014dd8      0x7f3 /usr/local/xenon/usr/lib/libxenon.a(xenos.o)
 .debug_info    0x00000000000155cb      0x92b /usr/local/xenon/usr/lib/libxenon.a(diskio.o)
 .debug_info    0x0000000000015ef6      0xcb4 /usr/local/xenon/usr/lib/libxenon.a(fat.o)
 .debug_info    0x0000000000016baa     0x2169 /usr/local/xenon/usr/lib/libxenon.a(fat_rb.o)
 .debug_info    0x0000000000018d13      0xa9a /usr/local/xenon/usr/lib/libxenon.a(file_rb.o)
 .debug_info    0x00000000000197ad      0x66b /usr/local/xenon/usr/lib/libxenon.a(dir_rb.o)
 .debug_info    0x0000000000019e18     0x18e6 /usr/local/xenon/usr/lib/libxenon.a(iso9660.o)
 .debug_info    0x000000000001b6fe      0x4e5 /usr/local/xenon/usr/lib/libxenon.a(lib_malloc.o)
 .debug_info    0x000000000001bbe3      0x135 /usr/local/xenon/usr/lib/libxenon.a(io.o)
 .debug_info    0x000000000001bd18     0x1dc8 /usr/local/xenon/usr/lib/libxenon.a(ohci.o)
 .debug_info    0x000000000001dae0     0x1663 /usr/local/xenon/usr/lib/libxenon.a(usbd.o)
 .debug_info    0x000000000001f143      0x94f /usr/local/xenon/usr/lib/libxenon.a(usbdevs.o)
 .debug_info    0x000000000001fa92      0xdce /usr/local/xenon/usr/lib/libxenon.a(usbhid.o)
 .debug_info    0x0000000000020860     0x1425 /usr/local/xenon/usr/lib/libxenon.a(usbhub.o)
 .debug_info    0x0000000000021c85      0x382 /usr/local/xenon/usr/lib/libxenon.a(usb_os.o)
 .debug_info    0x0000000000022007      0x299 /usr/local/xenon/usr/lib/libxenon.a(unicode_rb.o)
 .debug_info    0x00000000000222a0      0x158 /usr/local/xenon/usr/lib/libxenon.a(xenon_gpio.o)
 .debug_info    0x00000000000223f8      0x505 /usr/local/xenon/usr/lib/libxenon.a(xenon_config.o)
 .debug_info    0x00000000000228fd       0xd6 /usr/local/xenon/usr/lib/libxenon.a(ucode.o)
 .debug_info    0x00000000000229d3      0x4e3 /usr/local/xenon/usr/lib/libxenon.a(disk_rb.o)
 .debug_info    0x0000000000022eb6      0x271 /usr/local/xenon/usr/lib/libxenon.a(lib_queue.o)
 .debug_info    0x0000000000023127      0xcd8 /usr/local/xenon/usr/lib/libxenon.a(usbctrl.o)
 .debug_info    0x0000000000023dff      0xd0c /usr/local/xenon/usr/lib/libxenon.a(usbdebug.o)
 .debug_info    0x0000000000024b0b      0xbda /usr/local/xenon/usr/lib/libxenon.a(xenon_sfcx.o)
 .debug_info    0x00000000000256e5       0x79 /usr/local/xenon/lib/gcc/xenon/4.6.0/../../../../xenon/lib/../lib/libstdc++.a(new_opv.o)
 .debug_info    0x000000000002575e     0x17ab /usr/local/xenon/lib/gcc/xenon/4.6.0/../../../../xenon/lib/../lib/libstdc++.a(eh_personality.o)
 .debug_info    0x0000000000026f09      0xed4 /usr/local/xenon/lib/gcc/xenon/4.6.0/../../../../xenon/lib/../lib/libstdc++.a(eh_alloc.o)
 .debug_info    0x0000000000027ddd      0x181 /usr/local/xenon/lib/gcc/xenon/4.6.0/../../../../xenon/lib/../lib/libstdc++.a(bad_alloc.o)
 .debug_info    0x0000000000027f5e      0x3ea /usr/local/xenon/lib/gcc/xenon/4.6.0/../../../../xenon/lib/../lib/libstdc++.a(del_op.o)
 .debug_info    0x0000000000028348      0x88c /usr/local/xenon/lib/gcc/xenon/4.6.0/../../../../xenon/lib/../lib/libstdc++.a(eh_catch.o)
 .debug_info    0x0000000000028bd4      0x4e9 /usr/local/xenon/lib/gcc/xenon/4.6.0/../../../../xenon/lib/../lib/libstdc++.a(new_op.o)
 .debug_info    0x00000000000290bd      0x5b9 /usr/local/xenon/lib/gcc/xenon/4.6.0/../../../../xenon/lib/../lib/libstdc++.a(eh_terminate.o)
 .debug_info    0x0000000000029676      0x4d9 /usr/local/xenon/lib/gcc/xenon/4.6.0/../../../../xenon/lib/../lib/libstdc++.a(eh_exception.o)
 .debug_info    0x0000000000029b4f      0x6b6 /usr/local/xenon/lib/gcc/xenon/4.6.0/../../../../xenon/lib/../lib/libstdc++.a(eh_call.o)
 .debug_info    0x000000000002a205      0x693 /usr/local/xenon/lib/gcc/xenon/4.6.0/../../../../xenon/lib/../lib/libstdc++.a(eh_globals.o)
 .debug_info    0x000000000002a898      0x92e /usr/local/xenon/lib/gcc/xenon/4.6.0/../../../../xenon/lib/../lib/libstdc++.a(class_type_info.o)
 .debug_info    0x000000000002b1c6       0xea /usr/local/xenon/lib/gcc/xenon/4.6.0/../../../../xenon/lib/../lib/libstdc++.a(eh_term_handler.o)
 .debug_info    0x000000000002b2b0      0x85f /usr/local/xenon/lib/gcc/xenon/4.6.0/../../../../xenon/lib/../lib/libstdc++.a(si_class_type_info.o)
 .debug_info    0x000000000002bb0f       0xea /usr/local/xenon/lib/gcc/xenon/4.6.0/../../../../xenon/lib/../lib/libstdc++.a(eh_unex_handler.o)
 .debug_info    0x000000000002bbf9      0x4a5 /usr/local/xenon/lib/gcc/xenon/4.6.0/../../../../xenon/lib/../lib/libstdc++.a(tinfo.o)
 .debug_info    0x000000000002c09e      0x536 /usr/local/xenon/lib/gcc/xenon/4.6.0/../../../../xenon/lib/../lib/libstdc++.a(eh_throw.o)
 .debug_info    0x000000000002c5d4      0x10b /usr/local/xenon/lib/gcc/xenon/4.6.0/../../../../xenon/lib/../lib/libstdc++.a(pure.o)
 .debug_info    0x000000000002c6df     0x115c /usr/local/xenon/lib/gcc/xenon/4.6.0/../../../../xenon/lib/../lib/libstdc++.a(vterminate.o)
 .debug_info    0x000000000002d83b       0xe9 /usr/local/xenon/lib/gcc/xenon/4.6.0/../../../../xenon/lib/../lib/libstdc++.a(new_handler.o)
 .debug_info    0x000000000002d924     0x651e /usr/local/xenon/lib/gcc/xenon/4.6.0/../../../../xenon/lib/../lib/libstdc++.a(cp-demangle.o)
 .debug_info    0x0000000000033e42      0x495 /usr/local/xenon/lib/gcc/xenon/4.6.0/../../../../xenon/lib/../lib/libstdc++.a(eh_type.o)
 .debug_info    0x00000000000342d7      0x1ad /usr/local/xenon/xenon/lib/32/libm.a(lib_a-s_floor.o)
 .debug_info    0x0000000000034484      0x1b7 /usr/local/xenon/xenon/lib/32/libm.a(lib_a-s_frexp.o)
 .debug_info    0x000000000003463b      0x21f /usr/local/xenon/xenon/lib/32/libm.a(lib_a-s_modf.o)
 .debug_info    0x000000000003485a      0x1b9 /usr/local/xenon/xenon/lib/32/libm.a(lib_a-s_trunc.o)
 .debug_info    0x0000000000034a13      0x1df /usr/local/xenon/xenon/lib/32/libm.a(lib_a-w_pow.o)
 .debug_info    0x0000000000034bf2      0x6b0 /usr/local/xenon/xenon/lib/32/libm.a(lib_a-e_pow.o)
 .debug_info    0x00000000000352a2      0x22e /usr/local/xenon/xenon/lib/32/libm.a(lib_a-e_sqrt.o)
 .debug_info    0x00000000000354d0      0x152 /usr/local/xenon/xenon/lib/32/libm.a(lib_a-s_fabs.o)
 .debug_info    0x0000000000035622      0x13f /usr/local/xenon/xenon/lib/32/libm.a(lib_a-s_finite.o)
 .debug_info    0x0000000000035761      0x150 /usr/local/xenon/xenon/lib/32/libm.a(lib_a-s_isnand.o)
 .debug_info    0x00000000000358b1       0xc1 /usr/local/xenon/xenon/lib/32/libm.a(lib_a-s_lib_ver.o)
 .debug_info    0x0000000000035972      0x131 /usr/local/xenon/xenon/lib/32/libm.a(lib_a-s_matherr.o)
 .debug_info    0x0000000000035aa3      0x140 /usr/local/xenon/xenon/lib/32/libm.a(lib_a-s_nan.o)
 .debug_info    0x0000000000035be3      0x205 /usr/local/xenon/xenon/lib/32/libm.a(lib_a-s_rint.o)
 .debug_info    0x0000000000035de8      0x1fa /usr/local/xenon/xenon/lib/32/libm.a(lib_a-s_scalbn.o)
 .debug_info    0x0000000000035fe2      0x181 /usr/local/xenon/xenon/lib/32/libm.a(lib_a-s_copysign.o)
 .debug_info    0x0000000000036163       0x6b /usr/local/xenon/lib/gcc/xenon/4.6.0/32/libgcc.a(crtsavgpr.o)
 .debug_info    0x00000000000361ce       0x6c /usr/local/xenon/lib/gcc/xenon/4.6.0/32/libgcc.a(crtresxgpr.o)
 .debug_info    0x000000000003623a     0x582b /usr/local/xenon/lib/gcc/xenon/4.6.0/32/libgcc.a(unwind-dw2.o)
 .debug_info    0x000000000003ba65     0x350a /usr/local/xenon/lib/gcc/xenon/4.6.0/32/libgcc.a(unwind-dw2-fde-glibc.o)
 .debug_info    0x000000000003ef6f       0x88 /usr/local/xenon/xenon/lib/32/libc.a(lib_a-abort.o)
 .debug_info    0x000000000003eff7      0x9e3 /usr/local/xenon/xenon/lib/32/libc.a(lib_a-assert.o)
 .debug_info    0x000000000003f9da       0xb0 /usr/local/xenon/xenon/lib/32/libc.a(lib_a-atof.o)
 .debug_info    0x000000000003fa8a      0x98b /usr/local/xenon/xenon/lib/32/libc.a(lib_a-atoi.o)
 .debug_info    0x0000000000040415       0x9d /usr/local/xenon/xenon/lib/32/libc.a(lib_a-ctype_.o)
 .debug_info    0x00000000000404b2       0xee /usr/local/xenon/xenon/lib/32/libc.a(lib_a-cxa_atexit.o)
 .debug_info    0x00000000000405a0      0x965 /usr/local/xenon/xenon/lib/32/libc.a(lib_a-errno.o)
 .debug_info    0x0000000000040f05      0x974 /usr/local/xenon/xenon/lib/32/libc.a(lib_a-exit.o)
 .debug_info    0x0000000000041879      0x9cc /usr/local/xenon/xenon/lib/32/libc.a(lib_a-fclose.o)
 .debug_info    0x0000000000042245      0xa41 /usr/local/xenon/xenon/lib/32/libc.a(lib_a-fflush.o)
 .debug_info    0x0000000000042c86      0xbe6 /usr/local/xenon/xenon/lib/32/libc.a(lib_a-findfp.o)
 .debug_info    0x000000000004386c      0xa8e /usr/local/xenon/xenon/lib/32/libc.a(lib_a-fiprintf.o)
 .debug_info    0x00000000000442fa      0xa17 /usr/local/xenon/xenon/lib/32/libc.a(lib_a-fopen.o)
 .debug_info    0x0000000000044d11      0xa8e /usr/local/xenon/xenon/lib/32/libc.a(lib_a-fprintf.o)
 .debug_info    0x000000000004579f      0x9f7 /usr/local/xenon/xenon/lib/32/libc.a(lib_a-fputc.o)
 .debug_info    0x0000000000046196      0xa7c /usr/local/xenon/xenon/lib/32/libc.a(lib_a-fputs.o)
 .debug_info    0x0000000000046c12      0xab2 /usr/local/xenon/xenon/lib/32/libc.a(lib_a-fread.o)
 .debug_info    0x00000000000476c4      0xc40 /usr/local/xenon/xenon/lib/32/libc.a(lib_a-freer.o)
 .debug_info    0x0000000000048304      0xc13 /usr/local/xenon/xenon/lib/32/libc.a(lib_a-fseek.o)
 .debug_info    0x0000000000048f17      0xb30 /usr/local/xenon/xenon/lib/32/libc.a(lib_a-fstatr.o)
 .debug_info    0x0000000000049a47      0x9ce /usr/local/xenon/xenon/lib/32/libc.a(lib_a-ftell.o)
 .debug_info    0x000000000004a415      0xab3 /usr/local/xenon/xenon/lib/32/libc.a(lib_a-fvwrite.o)
 .debug_info    0x000000000004aec8      0xb32 /usr/local/xenon/xenon/lib/32/libc.a(lib_a-fwalk.o)
 .debug_info    0x000000000004b9fa      0xabb /usr/local/xenon/xenon/lib/32/libc.a(lib_a-fwrite.o)
 .debug_info    0x000000000004c4b5      0x966 /usr/local/xenon/xenon/lib/32/libc.a(lib_a-impure.o)
 .debug_info    0x000000000004ce1b      0xb45 /usr/local/xenon/xenon/lib/32/libc.a(lib_a-makebuf.o)
 .debug_info    0x000000000004d960      0x98d /usr/local/xenon/xenon/lib/32/libc.a(lib_a-malign.o)
 .debug_info    0x000000000004e2ed      0xa65 /usr/local/xenon/xenon/lib/32/libc.a(lib_a-malignr.o)
 .debug_info    0x000000000004ed52      0x9a7 /usr/local/xenon/xenon/lib/32/libc.a(lib_a-malloc.o)
 .debug_info    0x000000000004f6f9      0xd6b /usr/local/xenon/xenon/lib/32/libc.a(lib_a-mallocr.o)
 .debug_info    0x0000000000050464      0x126 /usr/local/xenon/xenon/lib/32/libc.a(lib_a-memchr.o)
 .debug_info    0x000000000005058a      0x10e /usr/local/xenon/xenon/lib/32/libc.a(lib_a-memcmp.o)
 .debug_info    0x0000000000050698      0x13d /usr/local/xenon/xenon/lib/32/libc.a(lib_a-memcpy.o)
 .debug_info    0x00000000000507d5      0x13d /usr/local/xenon/xenon/lib/32/libc.a(lib_a-memmove.o)
 .debug_info    0x0000000000050912      0x114 /usr/local/xenon/xenon/lib/32/libc.a(lib_a-memset.o)
 .debug_info    0x0000000000050a26      0x980 /usr/local/xenon/xenon/lib/32/libc.a(lib_a-mlock.o)
 .debug_info    0x00000000000513a6      0x9ab /usr/local/xenon/xenon/lib/32/libc.a(lib_a-openr.o)
 .debug_info    0x0000000000051d51      0xa70 /usr/local/xenon/xenon/lib/32/libc.a(lib_a-printf.o)
 .debug_info    0x00000000000527c1      0x9ac /usr/local/xenon/xenon/lib/32/libc.a(lib_a-putchar.o)
 .debug_info    0x000000000005316d      0x9f7 /usr/local/xenon/xenon/lib/32/libc.a(lib_a-putc.o)
 .debug_info    0x0000000000053b64      0xa5d /usr/local/xenon/xenon/lib/32/libc.a(lib_a-puts.o)
 .debug_info    0x00000000000545c1      0x986 /usr/local/xenon/xenon/lib/32/libc.a(lib_a-rand.o)
 .debug_info    0x0000000000054f47      0x98c /usr/local/xenon/xenon/lib/32/libc.a(lib_a-realloc.o)
 .debug_info    0x00000000000558d3      0xc08 /usr/local/xenon/xenon/lib/32/libc.a(lib_a-reallocr.o)
 .debug_info    0x00000000000564db      0xa60 /usr/local/xenon/xenon/lib/32/libc.a(lib_a-reent.o)
 .debug_info    0x0000000000056f3b      0x9c2 /usr/local/xenon/xenon/lib/32/libc.a(lib_a-refill.o)
 .debug_info    0x00000000000578fd      0x9ac /usr/local/xenon/xenon/lib/32/libc.a(lib_a-sbrkr.o)
 .debug_info    0x00000000000582a9      0xb5b /usr/local/xenon/xenon/lib/32/libc.a(lib_a-signal.o)
 .debug_info    0x0000000000058e04      0x9e5 /usr/local/xenon/xenon/lib/32/libc.a(lib_a-signalr.o)
 .debug_info    0x00000000000597e9      0xae1 /usr/local/xenon/xenon/lib/32/libc.a(lib_a-snprintf.o)
 .debug_info    0x000000000005a2ca      0xaaf /usr/local/xenon/xenon/lib/32/libc.a(lib_a-sprintf.o)
 .debug_info    0x000000000005ad79      0xae5 /usr/local/xenon/xenon/lib/32/libc.a(lib_a-stdio.o)
 .debug_info    0x000000000005b85e      0x13e /usr/local/xenon/xenon/lib/32/libc.a(lib_a-strcasecmp.o)
 .debug_info    0x000000000005b99c       0xe6 /usr/local/xenon/xenon/lib/32/libc.a(lib_a-strcat.o)
 .debug_info    0x000000000005ba82      0x111 /usr/local/xenon/xenon/lib/32/libc.a(lib_a-strchr.o)
 .debug_info    0x000000000005bb93       0xda /usr/local/xenon/xenon/lib/32/libc.a(lib_a-strcmp.o)
 .debug_info    0x000000000005bc6d      0x10b /usr/local/xenon/xenon/lib/32/libc.a(lib_a-strcpy.o)
 .debug_info    0x000000000005bd78       0xfd /usr/local/xenon/xenon/lib/32/libc.a(lib_a-strlcpy.o)
 .debug_info    0x000000000005be75       0xda /usr/local/xenon/xenon/lib/32/libc.a(lib_a-strlen.o)
 .debug_info    0x000000000005bf4f      0x14c /usr/local/xenon/xenon/lib/32/libc.a(lib_a-strncasecmp.o)
 .debug_info    0x000000000005c09b       0xf2 /usr/local/xenon/xenon/lib/32/libc.a(lib_a-strncmp.o)
 .debug_info    0x000000000005c18d      0x127 /usr/local/xenon/xenon/lib/32/libc.a(lib_a-strncpy.o)
 .debug_info    0x000000000005c2b4       0xc7 /usr/local/xenon/xenon/lib/32/libc.a(lib_a-strrchr.o)
 .debug_info    0x000000000005c37b      0xfd6 /usr/local/xenon/xenon/lib/32/libc.a(lib_a-strtod.o)
 .debug_info    0x000000000005d351      0x15f /usr/local/xenon/xenon/lib/32/libc.a(lib_a-strtok_r.o)
 .debug_info    0x000000000005d4b0      0xa6c /usr/local/xenon/xenon/lib/32/libc.a(lib_a-strtol.o)
 .debug_info    0x000000000005df1c     0x10d9 /usr/local/xenon/xenon/lib/32/libc.a(lib_a-svfprintf.o)
 .debug_info    0x000000000005eff5      0xef7 /usr/local/xenon/xenon/lib/32/libc.a(lib_a-vfiprintf.o)
 .debug_info    0x000000000005feec     0x120e /usr/local/xenon/xenon/lib/32/libc.a(lib_a-vfprintf.o)
 .debug_info    0x00000000000610fa      0xa25 /usr/local/xenon/xenon/lib/32/libc.a(lib_a-vprintf.o)
 .debug_info    0x0000000000061b1f      0xa77 /usr/local/xenon/xenon/lib/32/libc.a(lib_a-vsprintf.o)
 .debug_info    0x0000000000062596      0x9e6 /usr/local/xenon/xenon/lib/32/libc.a(lib_a-wbuf.o)
 .debug_info    0x0000000000062f7c      0x9c7 /usr/local/xenon/xenon/lib/32/libc.a(lib_a-writer.o)
 .debug_info    0x0000000000063943      0x992 /usr/local/xenon/xenon/lib/32/libc.a(lib_a-wsetup.o)
 .debug_info    0x00000000000642d5      0x9ef /usr/local/xenon/xenon/lib/32/libc.a(lib_a-__atexit.o)
 .debug_info    0x0000000000064cc4      0x9fc /usr/local/xenon/xenon/lib/32/libc.a(lib_a-__call_atexit.o)
 .debug_info    0x00000000000656c0      0x98c /usr/local/xenon/xenon/lib/32/libc.a(lib_a-closer.o)
 .debug_info    0x000000000006604c      0xdcf /usr/local/xenon/xenon/lib/32/libc.a(lib_a-dtoa.o)
 .debug_info    0x0000000000066e1b      0x99f /usr/local/xenon/xenon/lib/32/libc.a(lib_a-flags.o)
 .debug_info    0x00000000000677ba      0xe41 /usr/local/xenon/xenon/lib/32/libc.a(lib_a-gdtoa-gethex.o)
 .debug_info    0x00000000000685fb      0x316 /usr/local/xenon/xenon/lib/32/libc.a(lib_a-gdtoa-hexnan.o)
 .debug_info    0x0000000000068911      0x98c /usr/local/xenon/xenon/lib/32/libc.a(lib_a-isattyr.o)
 .debug_info    0x000000000006929d      0xbcd /usr/local/xenon/xenon/lib/32/libc.a(lib_a-locale.o)
 .debug_info    0x0000000000069e6a      0x9b5 /usr/local/xenon/xenon/lib/32/libc.a(lib_a-lseekr.o)
 .debug_info    0x000000000006a81f     0x1466 /usr/local/xenon/xenon/lib/32/libc.a(lib_a-mprec.o)
 .debug_info    0x000000000006bc85      0x9c0 /usr/local/xenon/xenon/lib/32/libc.a(lib_a-readr.o)
 .debug_info    0x000000000006c645       0xc9 /usr/local/xenon/xenon/lib/32/libc.a(lib_a-sf_nan.o)
 .debug_info    0x000000000006c70e      0x150 /usr/local/xenon/xenon/lib/32/libc.a(lib_a-s_isinfd.o)
 .debug_info    0x000000000006c85e      0xa4e /usr/local/xenon/xenon/lib/32/libc.a(lib_a-callocr.o)
 .debug_info    0x000000000006d2ac      0x59d /usr/local/xenon/lib/gcc/xenon/4.6.0/32/libgcc.a(_udivdi3.o)
 .debug_info    0x000000000006d849      0x59d /usr/local/xenon/lib/gcc/xenon/4.6.0/32/libgcc.a(_umoddi3.o)

.debug_abbrev   0x0000000000000000    0x12e5e
 .debug_abbrev  0x0000000000000000       0x7d /usr/local/xenon/lib/gcc/xenon/4.6.0/../../../../xenon/lib/../lib/crt1.o
 .debug_abbrev  0x000000000000007d      0x531 main.o
 .debug_abbrev  0x00000000000005ae      0x343 Tank.o
 .debug_abbrev  0x00000000000008f1       0xdb Tools.o
 .debug_abbrev  0x00000000000009cc      0x359 Console.o
 .debug_abbrev  0x0000000000000d25      0x2dc Draw.o
 .debug_abbrev  0x0000000000001001      0x3cd Font.o
 .debug_abbrev  0x00000000000013ce        0x1 stdafx.o
 .debug_abbrev  0x00000000000013cf      0x2ec Utils.o
 .debug_abbrev  0x00000000000016bb      0x129 zlx.o
 .debug_abbrev  0x00000000000017e4      0x445 /usr/local/xenon/usr/lib/libxenon.a(ata.o)
 .debug_abbrev  0x0000000000001c29       0xe7 /usr/local/xenon/usr/lib/libxenon.a(input.o)
 .debug_abbrev  0x0000000000001d10      0x27f /usr/local/xenon/usr/lib/libxenon.a(newlib.o)
 .debug_abbrev  0x0000000000001f8f       0x5a /usr/local/xenon/usr/lib/libxenon.a(vm.o)
 .debug_abbrev  0x0000000000001fe9      0x120 /usr/local/xenon/usr/lib/libxenon.a(time.o)
 .debug_abbrev  0x0000000000002109      0x1f0 /usr/local/xenon/usr/lib/libxenon.a(usbmain.o)
 .debug_abbrev  0x00000000000022f9      0x4f9 /usr/local/xenon/usr/lib/libxenon.a(tinyehci.o)
 .debug_abbrev  0x00000000000027f2       0xf6 /usr/local/xenon/usr/lib/libxenon.a(xenon_smc.o)
 .debug_abbrev  0x00000000000028e8       0x9e /usr/local/xenon/usr/lib/libxenon.a(xenon_uart.o)
 .debug_abbrev  0x0000000000002986      0x309 /usr/local/xenon/usr/lib/libxenon.a(edram.o)
 .debug_abbrev  0x0000000000002c8f      0x4f7 /usr/local/xenon/usr/lib/libxenon.a(xe.o)
 .debug_abbrev  0x0000000000003186      0x211 /usr/local/xenon/usr/lib/libxenon.a(xenos.o)
 .debug_abbrev  0x0000000000003397      0x199 /usr/local/xenon/usr/lib/libxenon.a(diskio.o)
 .debug_abbrev  0x0000000000003530      0x17e /usr/local/xenon/usr/lib/libxenon.a(fat.o)
 .debug_abbrev  0x00000000000036ae      0x3d9 /usr/local/xenon/usr/lib/libxenon.a(fat_rb.o)
 .debug_abbrev  0x0000000000003a87      0x22f /usr/local/xenon/usr/lib/libxenon.a(file_rb.o)
 .debug_abbrev  0x0000000000003cb6      0x1af /usr/local/xenon/usr/lib/libxenon.a(dir_rb.o)
 .debug_abbrev  0x0000000000003e65      0x47f /usr/local/xenon/usr/lib/libxenon.a(iso9660.o)
 .debug_abbrev  0x00000000000042e4      0x23d /usr/local/xenon/usr/lib/libxenon.a(lib_malloc.o)
 .debug_abbrev  0x0000000000004521       0xab /usr/local/xenon/usr/lib/libxenon.a(io.o)
 .debug_abbrev  0x00000000000045cc      0x35d /usr/local/xenon/usr/lib/libxenon.a(ohci.o)
 .debug_abbrev  0x0000000000004929      0x2f9 /usr/local/xenon/usr/lib/libxenon.a(usbd.o)
 .debug_abbrev  0x0000000000004c22      0x13f /usr/local/xenon/usr/lib/libxenon.a(usbdevs.o)
 .debug_abbrev  0x0000000000004d61      0x21f /usr/local/xenon/usr/lib/libxenon.a(usbhid.o)
 .debug_abbrev  0x0000000000004f80      0x31d /usr/local/xenon/usr/lib/libxenon.a(usbhub.o)
 .debug_abbrev  0x000000000000529d       0xde /usr/local/xenon/usr/lib/libxenon.a(usb_os.o)
 .debug_abbrev  0x000000000000537b       0xda /usr/local/xenon/usr/lib/libxenon.a(unicode_rb.o)
 .debug_abbrev  0x0000000000005455       0xb3 /usr/local/xenon/usr/lib/libxenon.a(xenon_gpio.o)
 .debug_abbrev  0x0000000000005508      0x17b /usr/local/xenon/usr/lib/libxenon.a(xenon_config.o)
 .debug_abbrev  0x0000000000005683       0x67 /usr/local/xenon/usr/lib/libxenon.a(ucode.o)
 .debug_abbrev  0x00000000000056ea      0x18a /usr/local/xenon/usr/lib/libxenon.a(disk_rb.o)
 .debug_abbrev  0x0000000000005874      0x13b /usr/local/xenon/usr/lib/libxenon.a(lib_queue.o)
 .debug_abbrev  0x00000000000059af      0x215 /usr/local/xenon/usr/lib/libxenon.a(usbctrl.o)
 .debug_abbrev  0x0000000000005bc4      0x247 /usr/local/xenon/usr/lib/libxenon.a(usbdebug.o)
 .debug_abbrev  0x0000000000005e0b      0x308 /usr/local/xenon/usr/lib/libxenon.a(xenon_sfcx.o)
 .debug_abbrev  0x0000000000006113       0x6b /usr/local/xenon/lib/gcc/xenon/4.6.0/../../../../xenon/lib/../lib/libstdc++.a(new_opv.o)
 .debug_abbrev  0x000000000000617e      0x4d8 /usr/local/xenon/lib/gcc/xenon/4.6.0/../../../../xenon/lib/../lib/libstdc++.a(eh_personality.o)
 .debug_abbrev  0x0000000000006656      0x420 /usr/local/xenon/lib/gcc/xenon/4.6.0/../../../../xenon/lib/../lib/libstdc++.a(eh_alloc.o)
 .debug_abbrev  0x0000000000006a76      0x11c /usr/local/xenon/lib/gcc/xenon/4.6.0/../../../../xenon/lib/../lib/libstdc++.a(bad_alloc.o)
 .debug_abbrev  0x0000000000006b92      0x11d /usr/local/xenon/lib/gcc/xenon/4.6.0/../../../../xenon/lib/../lib/libstdc++.a(del_op.o)
 .debug_abbrev  0x0000000000006caf      0x281 /usr/local/xenon/lib/gcc/xenon/4.6.0/../../../../xenon/lib/../lib/libstdc++.a(eh_catch.o)
 .debug_abbrev  0x0000000000006f30      0x1ac /usr/local/xenon/lib/gcc/xenon/4.6.0/../../../../xenon/lib/../lib/libstdc++.a(new_op.o)
 .debug_abbrev  0x00000000000070dc      0x1cf /usr/local/xenon/lib/gcc/xenon/4.6.0/../../../../xenon/lib/../lib/libstdc++.a(eh_terminate.o)
 .debug_abbrev  0x00000000000072ab      0x1e8 /usr/local/xenon/lib/gcc/xenon/4.6.0/../../../../xenon/lib/../lib/libstdc++.a(eh_exception.o)
 .debug_abbrev  0x0000000000007493      0x215 /usr/local/xenon/lib/gcc/xenon/4.6.0/../../../../xenon/lib/../lib/libstdc++.a(eh_call.o)
 .debug_abbrev  0x00000000000076a8      0x1a3 /usr/local/xenon/lib/gcc/xenon/4.6.0/../../../../xenon/lib/../lib/libstdc++.a(eh_globals.o)
 .debug_abbrev  0x000000000000784b      0x3b2 /usr/local/xenon/lib/gcc/xenon/4.6.0/../../../../xenon/lib/../lib/libstdc++.a(class_type_info.o)
 .debug_abbrev  0x0000000000007bfd       0x9d /usr/local/xenon/lib/gcc/xenon/4.6.0/../../../../xenon/lib/../lib/libstdc++.a(eh_term_handler.o)
 .debug_abbrev  0x0000000000007c9a      0x31b /usr/local/xenon/lib/gcc/xenon/4.6.0/../../../../xenon/lib/../lib/libstdc++.a(si_class_type_info.o)
 .debug_abbrev  0x0000000000007fb5       0x9d /usr/local/xenon/lib/gcc/xenon/4.6.0/../../../../xenon/lib/../lib/libstdc++.a(eh_unex_handler.o)
 .debug_abbrev  0x0000000000008052      0x259 /usr/local/xenon/lib/gcc/xenon/4.6.0/../../../../xenon/lib/../lib/libstdc++.a(tinfo.o)
 .debug_abbrev  0x00000000000082ab      0x23c /usr/local/xenon/lib/gcc/xenon/4.6.0/../../../../xenon/lib/../lib/libstdc++.a(eh_throw.o)
 .debug_abbrev  0x00000000000084e7       0x9b /usr/local/xenon/lib/gcc/xenon/4.6.0/../../../../xenon/lib/../lib/libstdc++.a(pure.o)
 .debug_abbrev  0x0000000000008582      0x2b5 /usr/local/xenon/lib/gcc/xenon/4.6.0/../../../../xenon/lib/../lib/libstdc++.a(vterminate.o)
 .debug_abbrev  0x0000000000008837       0xe7 /usr/local/xenon/lib/gcc/xenon/4.6.0/../../../../xenon/lib/../lib/libstdc++.a(new_handler.o)
 .debug_abbrev  0x000000000000891e      0x35e /usr/local/xenon/lib/gcc/xenon/4.6.0/../../../../xenon/lib/../lib/libstdc++.a(cp-demangle.o)
 .debug_abbrev  0x0000000000008c7c      0x1a9 /usr/local/xenon/lib/gcc/xenon/4.6.0/../../../../xenon/lib/../lib/libstdc++.a(eh_type.o)
 .debug_abbrev  0x0000000000008e25       0xf5 /usr/local/xenon/xenon/lib/32/libm.a(lib_a-s_floor.o)
 .debug_abbrev  0x0000000000008f1a      0x125 /usr/local/xenon/xenon/lib/32/libm.a(lib_a-s_frexp.o)
 .debug_abbrev  0x000000000000903f      0x12e /usr/local/xenon/xenon/lib/32/libm.a(lib_a-s_modf.o)
 .debug_abbrev  0x000000000000916d       0xee /usr/local/xenon/xenon/lib/32/libm.a(lib_a-s_trunc.o)
 .debug_abbrev  0x000000000000925b       0xe3 /usr/local/xenon/xenon/lib/32/libm.a(lib_a-w_pow.o)
 .debug_abbrev  0x000000000000933e      0x175 /usr/local/xenon/xenon/lib/32/libm.a(lib_a-e_pow.o)
 .debug_abbrev  0x00000000000094b3      0x113 /usr/local/xenon/xenon/lib/32/libm.a(lib_a-e_sqrt.o)
 .debug_abbrev  0x00000000000095c6       0xd0 /usr/local/xenon/xenon/lib/32/libm.a(lib_a-s_fabs.o)
 .debug_abbrev  0x0000000000009696       0xc7 /usr/local/xenon/xenon/lib/32/libm.a(lib_a-s_finite.o)
 .debug_abbrev  0x000000000000975d       0xd6 /usr/local/xenon/xenon/lib/32/libm.a(lib_a-s_isnand.o)
 .debug_abbrev  0x0000000000009833       0x53 /usr/local/xenon/xenon/lib/32/libm.a(lib_a-s_lib_ver.o)
 .debug_abbrev  0x0000000000009886       0x97 /usr/local/xenon/xenon/lib/32/libm.a(lib_a-s_matherr.o)
 .debug_abbrev  0x000000000000991d       0xd5 /usr/local/xenon/xenon/lib/32/libm.a(lib_a-s_nan.o)
 .debug_abbrev  0x00000000000099f2      0x10e /usr/local/xenon/xenon/lib/32/libm.a(lib_a-s_rint.o)
 .debug_abbrev  0x0000000000009b00       0xe4 /usr/local/xenon/xenon/lib/32/libm.a(lib_a-s_scalbn.o)
 .debug_abbrev  0x0000000000009be4      0x106 /usr/local/xenon/xenon/lib/32/libm.a(lib_a-s_copysign.o)
 .debug_abbrev  0x0000000000009cea       0x14 /usr/local/xenon/lib/gcc/xenon/4.6.0/32/libgcc.a(crtsavgpr.o)
 .debug_abbrev  0x0000000000009cfe       0x14 /usr/local/xenon/lib/gcc/xenon/4.6.0/32/libgcc.a(crtresxgpr.o)
 .debug_abbrev  0x0000000000009d12      0x57a /usr/local/xenon/lib/gcc/xenon/4.6.0/32/libgcc.a(unwind-dw2.o)
 .debug_abbrev  0x000000000000a28c      0x436 /usr/local/xenon/lib/gcc/xenon/4.6.0/32/libgcc.a(unwind-dw2-fde-glibc.o)
 .debug_abbrev  0x000000000000a6c2       0x3f /usr/local/xenon/xenon/lib/32/libc.a(lib_a-abort.o)
 .debug_abbrev  0x000000000000a701      0x17d /usr/local/xenon/xenon/lib/32/libc.a(lib_a-assert.o)
 .debug_abbrev  0x000000000000a87e       0x62 /usr/local/xenon/xenon/lib/32/libc.a(lib_a-atof.o)
 .debug_abbrev  0x000000000000a8e0      0x185 /usr/local/xenon/xenon/lib/32/libc.a(lib_a-atoi.o)
 .debug_abbrev  0x000000000000aa65       0x63 /usr/local/xenon/xenon/lib/32/libc.a(lib_a-ctype_.o)
 .debug_abbrev  0x000000000000aac8       0x8a /usr/local/xenon/xenon/lib/32/libc.a(lib_a-cxa_atexit.o)
 .debug_abbrev  0x000000000000ab52      0x16e /usr/local/xenon/xenon/lib/32/libc.a(lib_a-errno.o)
 .debug_abbrev  0x000000000000acc0      0x17d /usr/local/xenon/xenon/lib/32/libc.a(lib_a-exit.o)
 .debug_abbrev  0x000000000000ae3d      0x1b6 /usr/local/xenon/xenon/lib/32/libc.a(lib_a-fclose.o)
 .debug_abbrev  0x000000000000aff3      0x1d5 /usr/local/xenon/xenon/lib/32/libc.a(lib_a-fflush.o)
 .debug_abbrev  0x000000000000b1c8      0x269 /usr/local/xenon/xenon/lib/32/libc.a(lib_a-findfp.o)
 .debug_abbrev  0x000000000000b431      0x1ac /usr/local/xenon/xenon/lib/32/libc.a(lib_a-fiprintf.o)
 .debug_abbrev  0x000000000000b5dd      0x1d4 /usr/local/xenon/xenon/lib/32/libc.a(lib_a-fopen.o)
 .debug_abbrev  0x000000000000b7b1      0x1ac /usr/local/xenon/xenon/lib/32/libc.a(lib_a-fprintf.o)
 .debug_abbrev  0x000000000000b95d      0x1b6 /usr/local/xenon/xenon/lib/32/libc.a(lib_a-fputc.o)
 .debug_abbrev  0x000000000000bb13      0x1bb /usr/local/xenon/xenon/lib/32/libc.a(lib_a-fputs.o)
 .debug_abbrev  0x000000000000bcce      0x1cc /usr/local/xenon/xenon/lib/32/libc.a(lib_a-fread.o)
 .debug_abbrev  0x000000000000be9a      0x1ea /usr/local/xenon/xenon/lib/32/libc.a(lib_a-freer.o)
 .debug_abbrev  0x000000000000c084      0x217 /usr/local/xenon/xenon/lib/32/libc.a(lib_a-fseek.o)
 .debug_abbrev  0x000000000000c29b      0x19d /usr/local/xenon/xenon/lib/32/libc.a(lib_a-fstatr.o)
 .debug_abbrev  0x000000000000c438      0x1a7 /usr/local/xenon/xenon/lib/32/libc.a(lib_a-ftell.o)
 .debug_abbrev  0x000000000000c5df      0x1a5 /usr/local/xenon/xenon/lib/32/libc.a(lib_a-fvwrite.o)
 .debug_abbrev  0x000000000000c784      0x20e /usr/local/xenon/xenon/lib/32/libc.a(lib_a-fwalk.o)
 .debug_abbrev  0x000000000000c992      0x1ca /usr/local/xenon/xenon/lib/32/libc.a(lib_a-fwrite.o)
 .debug_abbrev  0x000000000000cb5c      0x166 /usr/local/xenon/xenon/lib/32/libc.a(lib_a-impure.o)
 .debug_abbrev  0x000000000000ccc2      0x199 /usr/local/xenon/xenon/lib/32/libc.a(lib_a-makebuf.o)
 .debug_abbrev  0x000000000000ce5b      0x17f /usr/local/xenon/xenon/lib/32/libc.a(lib_a-malign.o)
 .debug_abbrev  0x000000000000cfda      0x199 /usr/local/xenon/xenon/lib/32/libc.a(lib_a-malignr.o)
 .debug_abbrev  0x000000000000d173      0x196 /usr/local/xenon/xenon/lib/32/libc.a(lib_a-malloc.o)
 .debug_abbrev  0x000000000000d309      0x233 /usr/local/xenon/xenon/lib/32/libc.a(lib_a-mallocr.o)
 .debug_abbrev  0x000000000000d53c       0xb7 /usr/local/xenon/xenon/lib/32/libc.a(lib_a-memchr.o)
 .debug_abbrev  0x000000000000d5f3       0x8b /usr/local/xenon/xenon/lib/32/libc.a(lib_a-memcmp.o)
 .debug_abbrev  0x000000000000d67e       0xa8 /usr/local/xenon/xenon/lib/32/libc.a(lib_a-memcpy.o)
 .debug_abbrev  0x000000000000d726       0xa8 /usr/local/xenon/xenon/lib/32/libc.a(lib_a-memmove.o)
 .debug_abbrev  0x000000000000d7ce       0x9c /usr/local/xenon/xenon/lib/32/libc.a(lib_a-memset.o)
 .debug_abbrev  0x000000000000d86a      0x179 /usr/local/xenon/xenon/lib/32/libc.a(lib_a-mlock.o)
 .debug_abbrev  0x000000000000d9e3      0x19d /usr/local/xenon/xenon/lib/32/libc.a(lib_a-openr.o)
 .debug_abbrev  0x000000000000db80      0x1bb /usr/local/xenon/xenon/lib/32/libc.a(lib_a-printf.o)
 .debug_abbrev  0x000000000000dd3b      0x198 /usr/local/xenon/xenon/lib/32/libc.a(lib_a-putchar.o)
 .debug_abbrev  0x000000000000ded3      0x1a7 /usr/local/xenon/xenon/lib/32/libc.a(lib_a-putc.o)
 .debug_abbrev  0x000000000000e07a      0x1bb /usr/local/xenon/xenon/lib/32/libc.a(lib_a-puts.o)
 .debug_abbrev  0x000000000000e235      0x194 /usr/local/xenon/xenon/lib/32/libc.a(lib_a-rand.o)
 .debug_abbrev  0x000000000000e3c9      0x18e /usr/local/xenon/xenon/lib/32/libc.a(lib_a-realloc.o)
 .debug_abbrev  0x000000000000e557      0x1db /usr/local/xenon/xenon/lib/32/libc.a(lib_a-reallocr.o)
 .debug_abbrev  0x000000000000e732      0x1f3 /usr/local/xenon/xenon/lib/32/libc.a(lib_a-reent.o)
 .debug_abbrev  0x000000000000e925      0x196 /usr/local/xenon/xenon/lib/32/libc.a(lib_a-refill.o)
 .debug_abbrev  0x000000000000eabb      0x1b0 /usr/local/xenon/xenon/lib/32/libc.a(lib_a-sbrkr.o)
 .debug_abbrev  0x000000000000ec6b      0x21f /usr/local/xenon/xenon/lib/32/libc.a(lib_a-signal.o)
 .debug_abbrev  0x000000000000ee8a      0x1a4 /usr/local/xenon/xenon/lib/32/libc.a(lib_a-signalr.o)
 .debug_abbrev  0x000000000000f02e      0x1b1 /usr/local/xenon/xenon/lib/32/libc.a(lib_a-snprintf.o)
 .debug_abbrev  0x000000000000f1df      0x1ac /usr/local/xenon/xenon/lib/32/libc.a(lib_a-sprintf.o)
 .debug_abbrev  0x000000000000f38b      0x1b2 /usr/local/xenon/xenon/lib/32/libc.a(lib_a-stdio.o)
 .debug_abbrev  0x000000000000f53d       0x9f /usr/local/xenon/xenon/lib/32/libc.a(lib_a-strcasecmp.o)
 .debug_abbrev  0x000000000000f5dc       0x87 /usr/local/xenon/xenon/lib/32/libc.a(lib_a-strcat.o)
 .debug_abbrev  0x000000000000f663       0x8f /usr/local/xenon/xenon/lib/32/libc.a(lib_a-strchr.o)
 .debug_abbrev  0x000000000000f6f2       0x71 /usr/local/xenon/xenon/lib/32/libc.a(lib_a-strcmp.o)
 .debug_abbrev  0x000000000000f763       0x8f /usr/local/xenon/xenon/lib/32/libc.a(lib_a-strcpy.o)
 .debug_abbrev  0x000000000000f7f2       0x7c /usr/local/xenon/xenon/lib/32/libc.a(lib_a-strlcpy.o)
 .debug_abbrev  0x000000000000f86e       0x7e /usr/local/xenon/xenon/lib/32/libc.a(lib_a-strlen.o)
 .debug_abbrev  0x000000000000f8ec       0xb9 /usr/local/xenon/xenon/lib/32/libc.a(lib_a-strncasecmp.o)
 .debug_abbrev  0x000000000000f9a5       0x7e /usr/local/xenon/xenon/lib/32/libc.a(lib_a-strncmp.o)
 .debug_abbrev  0x000000000000fa23       0x8d /usr/local/xenon/xenon/lib/32/libc.a(lib_a-strncpy.o)
 .debug_abbrev  0x000000000000fab0       0x6f /usr/local/xenon/xenon/lib/32/libc.a(lib_a-strrchr.o)
 .debug_abbrev  0x000000000000fb1f      0x2f1 /usr/local/xenon/xenon/lib/32/libc.a(lib_a-strtod.o)
 .debug_abbrev  0x000000000000fe10       0xcd /usr/local/xenon/xenon/lib/32/libc.a(lib_a-strtok_r.o)
 .debug_abbrev  0x000000000000fedd      0x1cc /usr/local/xenon/xenon/lib/32/libc.a(lib_a-strtol.o)
 .debug_abbrev  0x00000000000100a9      0x333 /usr/local/xenon/xenon/lib/32/libc.a(lib_a-svfprintf.o)
 .debug_abbrev  0x00000000000103dc      0x2d1 /usr/local/xenon/xenon/lib/32/libc.a(lib_a-vfiprintf.o)
 .debug_abbrev  0x00000000000106ad      0x349 /usr/local/xenon/xenon/lib/32/libc.a(lib_a-vfprintf.o)
 .debug_abbrev  0x00000000000109f6      0x198 /usr/local/xenon/xenon/lib/32/libc.a(lib_a-vprintf.o)
 .debug_abbrev  0x0000000000010b8e      0x1bd /usr/local/xenon/xenon/lib/32/libc.a(lib_a-vsprintf.o)
 .debug_abbrev  0x0000000000010d4b      0x1a7 /usr/local/xenon/xenon/lib/32/libc.a(lib_a-wbuf.o)
 .debug_abbrev  0x0000000000010ef2      0x193 /usr/local/xenon/xenon/lib/32/libc.a(lib_a-writer.o)
 .debug_abbrev  0x0000000000011085      0x17f /usr/local/xenon/xenon/lib/32/libc.a(lib_a-wsetup.o)
 .debug_abbrev  0x0000000000011204      0x1d3 /usr/local/xenon/xenon/lib/32/libc.a(lib_a-__atexit.o)
 .debug_abbrev  0x00000000000113d7      0x1bc /usr/local/xenon/xenon/lib/32/libc.a(lib_a-__call_atexit.o)
 .debug_abbrev  0x0000000000011593      0x18e /usr/local/xenon/xenon/lib/32/libc.a(lib_a-closer.o)
 .debug_abbrev  0x0000000000011721      0x21a /usr/local/xenon/xenon/lib/32/libc.a(lib_a-dtoa.o)
 .debug_abbrev  0x000000000001193b      0x18c /usr/local/xenon/xenon/lib/32/libc.a(lib_a-flags.o)
 .debug_abbrev  0x0000000000011ac7      0x304 /usr/local/xenon/xenon/lib/32/libc.a(lib_a-gdtoa-gethex.o)
 .debug_abbrev  0x0000000000011dcb      0x165 /usr/local/xenon/xenon/lib/32/libc.a(lib_a-gdtoa-hexnan.o)
 .debug_abbrev  0x0000000000011f30      0x18e /usr/local/xenon/xenon/lib/32/libc.a(lib_a-isattyr.o)
 .debug_abbrev  0x00000000000120be      0x1f8 /usr/local/xenon/xenon/lib/32/libc.a(lib_a-locale.o)
 .debug_abbrev  0x00000000000122b6      0x19d /usr/local/xenon/xenon/lib/32/libc.a(lib_a-lseekr.o)
 .debug_abbrev  0x0000000000012453      0x2c6 /usr/local/xenon/xenon/lib/32/libc.a(lib_a-mprec.o)
 .debug_abbrev  0x0000000000012719      0x18e /usr/local/xenon/xenon/lib/32/libc.a(lib_a-readr.o)
 .debug_abbrev  0x00000000000128a7       0x6f /usr/local/xenon/xenon/lib/32/libc.a(lib_a-sf_nan.o)
 .debug_abbrev  0x0000000000012916       0xd6 /usr/local/xenon/xenon/lib/32/libc.a(lib_a-s_isinfd.o)
 .debug_abbrev  0x00000000000129ec      0x1ba /usr/local/xenon/xenon/lib/32/libc.a(lib_a-callocr.o)
 .debug_abbrev  0x0000000000012ba6      0x15a /usr/local/xenon/lib/gcc/xenon/4.6.0/32/libgcc.a(_udivdi3.o)
 .debug_abbrev  0x0000000000012d00      0x15e /usr/local/xenon/lib/gcc/xenon/4.6.0/32/libgcc.a(_umoddi3.o)

.debug_loc      0x0000000000000000    0x3c31f
 .debug_loc     0x0000000000000000       0x33 /usr/local/xenon/lib/gcc/xenon/4.6.0/../../../../xenon/lib/../lib/crt1.o
 .debug_loc     0x0000000000000033      0x3c0 main.o
 .debug_loc     0x00000000000003f3      0x87f Tank.o
 .debug_loc     0x0000000000000c72       0xa4 Tools.o
 .debug_loc     0x0000000000000d16      0x570 Console.o
 .debug_loc     0x0000000000001286      0x3c6 Draw.o
 .debug_loc     0x000000000000164c      0x8ab Font.o
 .debug_loc     0x0000000000001ef7      0x4ea Utils.o
 .debug_loc     0x00000000000023e1      0xc90 /usr/local/xenon/usr/lib/libxenon.a(ata.o)
 .debug_loc     0x0000000000003071       0xb5 /usr/local/xenon/usr/lib/libxenon.a(input.o)
 .debug_loc     0x0000000000003126      0x812 /usr/local/xenon/usr/lib/libxenon.a(newlib.o)
 .debug_loc     0x0000000000003938       0x85 /usr/local/xenon/usr/lib/libxenon.a(time.o)
 .debug_loc     0x00000000000039bd      0x10c /usr/local/xenon/usr/lib/libxenon.a(usbmain.o)
 .debug_loc     0x0000000000003ac9     0x32ae /usr/local/xenon/usr/lib/libxenon.a(tinyehci.o)
 .debug_loc     0x0000000000006d77      0x470 /usr/local/xenon/usr/lib/libxenon.a(xenon_smc.o)
 .debug_loc     0x00000000000071e7       0x72 /usr/local/xenon/usr/lib/libxenon.a(xenon_uart.o)
 .debug_loc     0x0000000000007259      0x96d /usr/local/xenon/usr/lib/libxenon.a(edram.o)
 .debug_loc     0x0000000000007bc6     0x35f5 /usr/local/xenon/usr/lib/libxenon.a(xe.o)
 .debug_loc     0x000000000000b1bb      0x669 /usr/local/xenon/usr/lib/libxenon.a(xenos.o)
 .debug_loc     0x000000000000b824      0x254 /usr/local/xenon/usr/lib/libxenon.a(diskio.o)
 .debug_loc     0x000000000000ba78      0x4bf /usr/local/xenon/usr/lib/libxenon.a(fat.o)
 .debug_loc     0x000000000000bf37     0x2c7d /usr/local/xenon/usr/lib/libxenon.a(fat_rb.o)
 .debug_loc     0x000000000000ebb4      0xe52 /usr/local/xenon/usr/lib/libxenon.a(file_rb.o)
 .debug_loc     0x000000000000fa06      0x3c9 /usr/local/xenon/usr/lib/libxenon.a(dir_rb.o)
 .debug_loc     0x000000000000fdcf      0xda5 /usr/local/xenon/usr/lib/libxenon.a(iso9660.o)
 .debug_loc     0x0000000000010b74      0x2fa /usr/local/xenon/usr/lib/libxenon.a(lib_malloc.o)
 .debug_loc     0x0000000000010e6e       0x26 /usr/local/xenon/usr/lib/libxenon.a(io.o)
 .debug_loc     0x0000000000010e94     0x12d5 /usr/local/xenon/usr/lib/libxenon.a(ohci.o)
 .debug_loc     0x0000000000012169     0x1034 /usr/local/xenon/usr/lib/libxenon.a(usbd.o)
 .debug_loc     0x000000000001319d       0x98 /usr/local/xenon/usr/lib/libxenon.a(usbdevs.o)
 .debug_loc     0x0000000000013235      0x338 /usr/local/xenon/usr/lib/libxenon.a(usbhid.o)
 .debug_loc     0x000000000001356d      0x809 /usr/local/xenon/usr/lib/libxenon.a(usbhub.o)
 .debug_loc     0x0000000000013d76      0x382 /usr/local/xenon/usr/lib/libxenon.a(usb_os.o)
 .debug_loc     0x00000000000140f8      0x375 /usr/local/xenon/usr/lib/libxenon.a(unicode_rb.o)
 .debug_loc     0x000000000001446d      0x14f /usr/local/xenon/usr/lib/libxenon.a(xenon_gpio.o)
 .debug_loc     0x00000000000145bc      0x112 /usr/local/xenon/usr/lib/libxenon.a(xenon_config.o)
 .debug_loc     0x00000000000146ce      0x3ae /usr/local/xenon/usr/lib/libxenon.a(disk_rb.o)
 .debug_loc     0x0000000000014a7c      0x192 /usr/local/xenon/usr/lib/libxenon.a(lib_queue.o)
 .debug_loc     0x0000000000014c0e      0x1be /usr/local/xenon/usr/lib/libxenon.a(usbctrl.o)
 .debug_loc     0x0000000000014dcc      0x41a /usr/local/xenon/usr/lib/libxenon.a(usbdebug.o)
 .debug_loc     0x00000000000151e6      0x702 /usr/local/xenon/usr/lib/libxenon.a(xenon_sfcx.o)
 .debug_loc     0x00000000000158e8       0x4b /usr/local/xenon/lib/gcc/xenon/4.6.0/../../../../xenon/lib/../lib/libstdc++.a(new_opv.o)
 .debug_loc     0x0000000000015933     0x1878 /usr/local/xenon/lib/gcc/xenon/4.6.0/../../../../xenon/lib/../lib/libstdc++.a(eh_personality.o)
 .debug_loc     0x00000000000171ab      0x309 /usr/local/xenon/lib/gcc/xenon/4.6.0/../../../../xenon/lib/../lib/libstdc++.a(eh_alloc.o)
 .debug_loc     0x00000000000174b4       0xc8 /usr/local/xenon/lib/gcc/xenon/4.6.0/../../../../xenon/lib/../lib/libstdc++.a(bad_alloc.o)
 .debug_loc     0x000000000001757c       0x3f /usr/local/xenon/lib/gcc/xenon/4.6.0/../../../../xenon/lib/../lib/libstdc++.a(del_op.o)
 .debug_loc     0x00000000000175bb      0x398 /usr/local/xenon/lib/gcc/xenon/4.6.0/../../../../xenon/lib/../lib/libstdc++.a(eh_catch.o)
 .debug_loc     0x0000000000017953       0xc8 /usr/local/xenon/lib/gcc/xenon/4.6.0/../../../../xenon/lib/../lib/libstdc++.a(new_op.o)
 .debug_loc     0x0000000000017a1b      0x13c /usr/local/xenon/lib/gcc/xenon/4.6.0/../../../../xenon/lib/../lib/libstdc++.a(eh_terminate.o)
 .debug_loc     0x0000000000017b57      0x269 /usr/local/xenon/lib/gcc/xenon/4.6.0/../../../../xenon/lib/../lib/libstdc++.a(eh_exception.o)
 .debug_loc     0x0000000000017dc0       0x5e /usr/local/xenon/lib/gcc/xenon/4.6.0/../../../../xenon/lib/../lib/libstdc++.a(eh_call.o)
 .debug_loc     0x0000000000017e1e       0x58 /usr/local/xenon/lib/gcc/xenon/4.6.0/../../../../xenon/lib/../lib/libstdc++.a(eh_globals.o)
 .debug_loc     0x0000000000017e76      0x4b9 /usr/local/xenon/lib/gcc/xenon/4.6.0/../../../../xenon/lib/../lib/libstdc++.a(class_type_info.o)
 .debug_loc     0x000000000001832f      0x684 /usr/local/xenon/lib/gcc/xenon/4.6.0/../../../../xenon/lib/../lib/libstdc++.a(si_class_type_info.o)
 .debug_loc     0x00000000000189b3      0x101 /usr/local/xenon/lib/gcc/xenon/4.6.0/../../../../xenon/lib/../lib/libstdc++.a(tinfo.o)
 .debug_loc     0x0000000000018ab4      0x19e /usr/local/xenon/lib/gcc/xenon/4.6.0/../../../../xenon/lib/../lib/libstdc++.a(eh_throw.o)
 .debug_loc     0x0000000000018c52       0x20 /usr/local/xenon/lib/gcc/xenon/4.6.0/../../../../xenon/lib/../lib/libstdc++.a(pure.o)
 .debug_loc     0x0000000000018c72      0x10f /usr/local/xenon/lib/gcc/xenon/4.6.0/../../../../xenon/lib/../lib/libstdc++.a(vterminate.o)
 .debug_loc     0x0000000000018d81       0x4e /usr/local/xenon/lib/gcc/xenon/4.6.0/../../../../xenon/lib/../lib/libstdc++.a(new_handler.o)
 .debug_loc     0x0000000000018dcf     0x6cbc /usr/local/xenon/lib/gcc/xenon/4.6.0/../../../../xenon/lib/../lib/libstdc++.a(cp-demangle.o)
 .debug_loc     0x000000000001fa8b       0x8a /usr/local/xenon/lib/gcc/xenon/4.6.0/../../../../xenon/lib/../lib/libstdc++.a(eh_type.o)
 .debug_loc     0x000000000001fb15      0x229 /usr/local/xenon/xenon/lib/32/libm.a(lib_a-s_floor.o)
 .debug_loc     0x000000000001fd3e       0xae /usr/local/xenon/xenon/lib/32/libm.a(lib_a-s_frexp.o)
 .debug_loc     0x000000000001fdec      0x155 /usr/local/xenon/xenon/lib/32/libm.a(lib_a-s_modf.o)
 .debug_loc     0x000000000001ff41       0xb2 /usr/local/xenon/xenon/lib/32/libm.a(lib_a-s_trunc.o)
 .debug_loc     0x000000000001fff3      0x1c9 /usr/local/xenon/xenon/lib/32/libm.a(lib_a-w_pow.o)
 .debug_loc     0x00000000000201bc      0xaa4 /usr/local/xenon/xenon/lib/32/libm.a(lib_a-e_pow.o)
 .debug_loc     0x0000000000020c60      0x533 /usr/local/xenon/xenon/lib/32/libm.a(lib_a-e_sqrt.o)
 .debug_loc     0x0000000000021193       0x40 /usr/local/xenon/xenon/lib/32/libm.a(lib_a-s_fabs.o)
 .debug_loc     0x00000000000211d3       0x2c /usr/local/xenon/xenon/lib/32/libm.a(lib_a-s_finite.o)
 .debug_loc     0x00000000000211ff       0x65 /usr/local/xenon/xenon/lib/32/libm.a(lib_a-s_isnand.o)
 .debug_loc     0x0000000000021264       0x13 /usr/local/xenon/xenon/lib/32/libm.a(lib_a-s_matherr.o)
 .debug_loc     0x0000000000021277       0x44 /usr/local/xenon/xenon/lib/32/libm.a(lib_a-s_nan.o)
 .debug_loc     0x00000000000212bb      0x282 /usr/local/xenon/xenon/lib/32/libm.a(lib_a-s_rint.o)
 .debug_loc     0x000000000002153d      0x20e /usr/local/xenon/xenon/lib/32/libm.a(lib_a-s_scalbn.o)
 .debug_loc     0x000000000002174b       0x93 /usr/local/xenon/xenon/lib/32/libm.a(lib_a-s_copysign.o)
 .debug_loc     0x00000000000217de     0x44bc /usr/local/xenon/lib/gcc/xenon/4.6.0/32/libgcc.a(unwind-dw2.o)
 .debug_loc     0x0000000000025c9a     0x2027 /usr/local/xenon/lib/gcc/xenon/4.6.0/32/libgcc.a(unwind-dw2-fde-glibc.o)
 .debug_loc     0x0000000000027cc1       0x20 /usr/local/xenon/xenon/lib/32/libc.a(lib_a-abort.o)
 .debug_loc     0x0000000000027ce1      0x11d /usr/local/xenon/xenon/lib/32/libc.a(lib_a-assert.o)
 .debug_loc     0x0000000000027dfe       0x3f /usr/local/xenon/xenon/lib/32/libc.a(lib_a-atof.o)
 .debug_loc     0x0000000000027e3d       0x91 /usr/local/xenon/xenon/lib/32/libc.a(lib_a-atoi.o)
 .debug_loc     0x0000000000027ece       0x86 /usr/local/xenon/xenon/lib/32/libc.a(lib_a-cxa_atexit.o)
 .debug_loc     0x0000000000027f54       0x2c /usr/local/xenon/xenon/lib/32/libc.a(lib_a-errno.o)
 .debug_loc     0x0000000000027f80       0x3e /usr/local/xenon/xenon/lib/32/libc.a(lib_a-exit.o)
 .debug_loc     0x0000000000027fbe      0x12b /usr/local/xenon/xenon/lib/32/libc.a(lib_a-fclose.o)
 .debug_loc     0x00000000000280e9      0x241 /usr/local/xenon/xenon/lib/32/libc.a(lib_a-fflush.o)
 .debug_loc     0x000000000002832a      0x321 /usr/local/xenon/xenon/lib/32/libc.a(lib_a-findfp.o)
 .debug_loc     0x000000000002864b       0xe5 /usr/local/xenon/xenon/lib/32/libc.a(lib_a-fiprintf.o)
 .debug_loc     0x0000000000028730      0x1d2 /usr/local/xenon/xenon/lib/32/libc.a(lib_a-fopen.o)
 .debug_loc     0x0000000000028902       0xe5 /usr/local/xenon/xenon/lib/32/libc.a(lib_a-fprintf.o)
 .debug_loc     0x00000000000289e7       0xcd /usr/local/xenon/xenon/lib/32/libc.a(lib_a-fputc.o)
 .debug_loc     0x0000000000028ab4      0x11a /usr/local/xenon/xenon/lib/32/libc.a(lib_a-fputs.o)
 .debug_loc     0x0000000000028bce      0x3c1 /usr/local/xenon/xenon/lib/32/libc.a(lib_a-fread.o)
 .debug_loc     0x0000000000028f8f      0x3e7 /usr/local/xenon/xenon/lib/32/libc.a(lib_a-freer.o)
 .debug_loc     0x0000000000029376      0x3e0 /usr/local/xenon/xenon/lib/32/libc.a(lib_a-fseek.o)
 .debug_loc     0x0000000000029756       0x9e /usr/local/xenon/xenon/lib/32/libc.a(lib_a-fstatr.o)
 .debug_loc     0x00000000000297f4      0x12b /usr/local/xenon/xenon/lib/32/libc.a(lib_a-ftell.o)
 .debug_loc     0x000000000002991f      0x54f /usr/local/xenon/xenon/lib/32/libc.a(lib_a-fvwrite.o)
 .debug_loc     0x0000000000029e6e      0x29c /usr/local/xenon/xenon/lib/32/libc.a(lib_a-fwalk.o)
 .debug_loc     0x000000000002a10a      0x1d4 /usr/local/xenon/xenon/lib/32/libc.a(lib_a-fwrite.o)
 .debug_loc     0x000000000002a2de      0x19f /usr/local/xenon/xenon/lib/32/libc.a(lib_a-makebuf.o)
 .debug_loc     0x000000000002a47d       0x68 /usr/local/xenon/xenon/lib/32/libc.a(lib_a-malign.o)
 .debug_loc     0x000000000002a4e5      0x240 /usr/local/xenon/xenon/lib/32/libc.a(lib_a-malignr.o)
 .debug_loc     0x000000000002a725       0x94 /usr/local/xenon/xenon/lib/32/libc.a(lib_a-malloc.o)
 .debug_loc     0x000000000002a7b9      0xa48 /usr/local/xenon/xenon/lib/32/libc.a(lib_a-mallocr.o)
 .debug_loc     0x000000000002b201      0x157 /usr/local/xenon/xenon/lib/32/libc.a(lib_a-memchr.o)
 .debug_loc     0x000000000002b358       0xe4 /usr/local/xenon/xenon/lib/32/libc.a(lib_a-memcmp.o)
 .debug_loc     0x000000000002b43c      0x1c3 /usr/local/xenon/xenon/lib/32/libc.a(lib_a-memcpy.o)
 .debug_loc     0x000000000002b5ff      0x28a /usr/local/xenon/xenon/lib/32/libc.a(lib_a-memmove.o)
 .debug_loc     0x000000000002b889      0x1a6 /usr/local/xenon/xenon/lib/32/libc.a(lib_a-memset.o)
 .debug_loc     0x000000000002ba2f       0xbc /usr/local/xenon/xenon/lib/32/libc.a(lib_a-openr.o)
 .debug_loc     0x000000000002baeb       0xbd /usr/local/xenon/xenon/lib/32/libc.a(lib_a-printf.o)
 .debug_loc     0x000000000002bba8       0x9c /usr/local/xenon/xenon/lib/32/libc.a(lib_a-putchar.o)
 .debug_loc     0x000000000002bc44      0x1ca /usr/local/xenon/xenon/lib/32/libc.a(lib_a-putc.o)
 .debug_loc     0x000000000002be0e       0xf5 /usr/local/xenon/xenon/lib/32/libc.a(lib_a-puts.o)
 .debug_loc     0x000000000002bf03       0x58 /usr/local/xenon/xenon/lib/32/libc.a(lib_a-rand.o)
 .debug_loc     0x000000000002bf5b       0x68 /usr/local/xenon/xenon/lib/32/libc.a(lib_a-realloc.o)
 .debug_loc     0x000000000002bfc3      0xca9 /usr/local/xenon/xenon/lib/32/libc.a(lib_a-reallocr.o)
 .debug_loc     0x000000000002cc6c      0x226 /usr/local/xenon/xenon/lib/32/libc.a(lib_a-reent.o)
 .debug_loc     0x000000000002ce92      0x148 /usr/local/xenon/xenon/lib/32/libc.a(lib_a-refill.o)
 .debug_loc     0x000000000002cfda       0x80 /usr/local/xenon/xenon/lib/32/libc.a(lib_a-sbrkr.o)
 .debug_loc     0x000000000002d05a      0x432 /usr/local/xenon/xenon/lib/32/libc.a(lib_a-signal.o)
 .debug_loc     0x000000000002d48c       0xdd /usr/local/xenon/xenon/lib/32/libc.a(lib_a-signalr.o)
 .debug_loc     0x000000000002d569      0x234 /usr/local/xenon/xenon/lib/32/libc.a(lib_a-snprintf.o)
 .debug_loc     0x000000000002d79d      0x115 /usr/local/xenon/xenon/lib/32/libc.a(lib_a-sprintf.o)
 .debug_loc     0x000000000002d8b2      0x29c /usr/local/xenon/xenon/lib/32/libc.a(lib_a-stdio.o)
 .debug_loc     0x000000000002db4e      0x102 /usr/local/xenon/xenon/lib/32/libc.a(lib_a-strcasecmp.o)
 .debug_loc     0x000000000002dc50       0xa4 /usr/local/xenon/xenon/lib/32/libc.a(lib_a-strcat.o)
 .debug_loc     0x000000000002dcf4      0x1a4 /usr/local/xenon/xenon/lib/32/libc.a(lib_a-strchr.o)
 .debug_loc     0x000000000002de98       0xec /usr/local/xenon/xenon/lib/32/libc.a(lib_a-strcmp.o)
 .debug_loc     0x000000000002df84       0xb9 /usr/local/xenon/xenon/lib/32/libc.a(lib_a-strcpy.o)
 .debug_loc     0x000000000002e03d      0x11e /usr/local/xenon/xenon/lib/32/libc.a(lib_a-strlcpy.o)
 .debug_loc     0x000000000002e15b       0xd6 /usr/local/xenon/xenon/lib/32/libc.a(lib_a-strlen.o)
 .debug_loc     0x000000000002e231      0x108 /usr/local/xenon/xenon/lib/32/libc.a(lib_a-strncasecmp.o)
 .debug_loc     0x000000000002e339      0x1ae /usr/local/xenon/xenon/lib/32/libc.a(lib_a-strncmp.o)
 .debug_loc     0x000000000002e4e7      0x104 /usr/local/xenon/xenon/lib/32/libc.a(lib_a-strncpy.o)
 .debug_loc     0x000000000002e5eb       0xf8 /usr/local/xenon/xenon/lib/32/libc.a(lib_a-strrchr.o)
 .debug_loc     0x000000000002e6e3     0x1b73 /usr/local/xenon/xenon/lib/32/libc.a(lib_a-strtod.o)
 .debug_loc     0x0000000000030256      0x1c7 /usr/local/xenon/xenon/lib/32/libc.a(lib_a-strtok_r.o)
 .debug_loc     0x000000000003041d      0x2db /usr/local/xenon/xenon/lib/32/libc.a(lib_a-strtol.o)
 .debug_loc     0x00000000000306f8     0x2155 /usr/local/xenon/xenon/lib/32/libc.a(lib_a-svfprintf.o)
 .debug_loc     0x000000000003284d     0x1058 /usr/local/xenon/xenon/lib/32/libc.a(lib_a-vfiprintf.o)
 .debug_loc     0x00000000000338a5     0x20a0 /usr/local/xenon/xenon/lib/32/libc.a(lib_a-vfprintf.o)
 .debug_loc     0x0000000000035945       0xe3 /usr/local/xenon/xenon/lib/32/libc.a(lib_a-vprintf.o)
 .debug_loc     0x0000000000035a28      0x10a /usr/local/xenon/xenon/lib/32/libc.a(lib_a-vsprintf.o)
 .debug_loc     0x0000000000035b32      0x171 /usr/local/xenon/xenon/lib/32/libc.a(lib_a-wbuf.o)
 .debug_loc     0x0000000000035ca3       0xbc /usr/local/xenon/xenon/lib/32/libc.a(lib_a-writer.o)
 .debug_loc     0x0000000000035d5f       0x8a /usr/local/xenon/xenon/lib/32/libc.a(lib_a-wsetup.o)
 .debug_loc     0x0000000000035de9      0x11b /usr/local/xenon/xenon/lib/32/libc.a(lib_a-__atexit.o)
 .debug_loc     0x0000000000035f04      0x1d7 /usr/local/xenon/xenon/lib/32/libc.a(lib_a-__call_atexit.o)
 .debug_loc     0x00000000000360db       0x80 /usr/local/xenon/xenon/lib/32/libc.a(lib_a-closer.o)
 .debug_loc     0x000000000003615b     0x1f04 /usr/local/xenon/xenon/lib/32/libc.a(lib_a-dtoa.o)
 .debug_loc     0x000000000003805f       0xcc /usr/local/xenon/xenon/lib/32/libc.a(lib_a-flags.o)
 .debug_loc     0x000000000003812b      0xc10 /usr/local/xenon/xenon/lib/32/libc.a(lib_a-gdtoa-gethex.o)
 .debug_loc     0x0000000000038d3b      0x47d /usr/local/xenon/xenon/lib/32/libc.a(lib_a-gdtoa-hexnan.o)
 .debug_loc     0x00000000000391b8       0x80 /usr/local/xenon/xenon/lib/32/libc.a(lib_a-isattyr.o)
 .debug_loc     0x0000000000039238      0x1b2 /usr/local/xenon/xenon/lib/32/libc.a(lib_a-locale.o)
 .debug_loc     0x00000000000393ea       0xbc /usr/local/xenon/xenon/lib/32/libc.a(lib_a-lseekr.o)
 .debug_loc     0x00000000000394a6     0x1a81 /usr/local/xenon/xenon/lib/32/libc.a(lib_a-mprec.o)
 .debug_loc     0x000000000003af27       0xbc /usr/local/xenon/xenon/lib/32/libc.a(lib_a-readr.o)
 .debug_loc     0x000000000003afe3       0x2c /usr/local/xenon/xenon/lib/32/libc.a(lib_a-sf_nan.o)
 .debug_loc     0x000000000003b00f       0x60 /usr/local/xenon/xenon/lib/32/libc.a(lib_a-s_isinfd.o)
 .debug_loc     0x000000000003b06f      0x1c7 /usr/local/xenon/xenon/lib/32/libc.a(lib_a-callocr.o)
 .debug_loc     0x000000000003b236      0x805 /usr/local/xenon/lib/gcc/xenon/4.6.0/32/libgcc.a(_udivdi3.o)
 .debug_loc     0x000000000003ba3b      0x8e4 /usr/local/xenon/lib/gcc/xenon/4.6.0/32/libgcc.a(_umoddi3.o)

.debug_aranges  0x0000000000000000     0x27a8
 .debug_aranges
                0x0000000000000000       0x20 /usr/local/xenon/lib/gcc/xenon/4.6.0/../../../../xenon/lib/../lib/crt1.o
 .debug_aranges
                0x0000000000000020       0x60 main.o
 .debug_aranges
                0x0000000000000080       0xa0 Tank.o
 .debug_aranges
                0x0000000000000120       0x28 Tools.o
 .debug_aranges
                0x0000000000000148       0x70 Console.o
 .debug_aranges
                0x00000000000001b8       0x40 Draw.o
 .debug_aranges
                0x00000000000001f8       0x78 Font.o
 .debug_aranges
                0x0000000000000270       0x58 Utils.o
 .debug_aranges
                0x00000000000002c8       0x90 /usr/local/xenon/usr/lib/libxenon.a(ata.o)
 .debug_aranges
                0x0000000000000358       0x28 /usr/local/xenon/usr/lib/libxenon.a(input.o)
 .debug_aranges
                0x0000000000000380       0xd0 /usr/local/xenon/usr/lib/libxenon.a(newlib.o)
 .debug_aranges
                0x0000000000000450       0x40 /usr/local/xenon/usr/lib/libxenon.a(time.o)
 .debug_aranges
                0x0000000000000490       0x38 /usr/local/xenon/usr/lib/libxenon.a(usbmain.o)
 .debug_aranges
                0x00000000000004c8      0x1d8 /usr/local/xenon/usr/lib/libxenon.a(tinyehci.o)
 .debug_aranges
                0x00000000000006a0       0x90 /usr/local/xenon/usr/lib/libxenon.a(xenon_smc.o)
 .debug_aranges
                0x0000000000000730       0x30 /usr/local/xenon/usr/lib/libxenon.a(xenon_uart.o)
 .debug_aranges
                0x0000000000000760       0x98 /usr/local/xenon/usr/lib/libxenon.a(edram.o)
 .debug_aranges
                0x00000000000007f8      0x458 /usr/local/xenon/usr/lib/libxenon.a(xe.o)
 .debug_aranges
                0x0000000000000c50       0x80 /usr/local/xenon/usr/lib/libxenon.a(xenos.o)
 .debug_aranges
                0x0000000000000cd0       0x48 /usr/local/xenon/usr/lib/libxenon.a(diskio.o)
 .debug_aranges
                0x0000000000000d18       0x70 /usr/local/xenon/usr/lib/libxenon.a(fat.o)
 .debug_aranges
                0x0000000000000d88      0x130 /usr/local/xenon/usr/lib/libxenon.a(fat_rb.o)
 .debug_aranges
                0x0000000000000eb8       0x88 /usr/local/xenon/usr/lib/libxenon.a(file_rb.o)
 .debug_aranges
                0x0000000000000f40       0x48 /usr/local/xenon/usr/lib/libxenon.a(dir_rb.o)
 .debug_aranges
                0x0000000000000f88       0xb8 /usr/local/xenon/usr/lib/libxenon.a(iso9660.o)
 .debug_aranges
                0x0000000000001040       0x58 /usr/local/xenon/usr/lib/libxenon.a(lib_malloc.o)
 .debug_aranges
                0x0000000000001098       0x38 /usr/local/xenon/usr/lib/libxenon.a(io.o)
 .debug_aranges
                0x00000000000010d0       0xa8 /usr/local/xenon/usr/lib/libxenon.a(ohci.o)
 .debug_aranges
                0x0000000000001178      0x110 /usr/local/xenon/usr/lib/libxenon.a(usbd.o)
 .debug_aranges
                0x0000000000001288       0x20 /usr/local/xenon/usr/lib/libxenon.a(usbdevs.o)
 .debug_aranges
                0x00000000000012a8       0x38 /usr/local/xenon/usr/lib/libxenon.a(usbhid.o)
 .debug_aranges
                0x00000000000012e0       0x78 /usr/local/xenon/usr/lib/libxenon.a(usbhub.o)
 .debug_aranges
                0x0000000000001358       0x78 /usr/local/xenon/usr/lib/libxenon.a(usb_os.o)
 .debug_aranges
                0x00000000000013d0       0x48 /usr/local/xenon/usr/lib/libxenon.a(unicode_rb.o)
 .debug_aranges
                0x0000000000001418       0x30 /usr/local/xenon/usr/lib/libxenon.a(xenon_gpio.o)
 .debug_aranges
                0x0000000000001448       0x38 /usr/local/xenon/usr/lib/libxenon.a(xenon_config.o)
 .debug_aranges
                0x0000000000001480       0x48 /usr/local/xenon/usr/lib/libxenon.a(disk_rb.o)
 .debug_aranges
                0x00000000000014c8       0x48 /usr/local/xenon/usr/lib/libxenon.a(lib_queue.o)
 .debug_aranges
                0x0000000000001510       0x30 /usr/local/xenon/usr/lib/libxenon.a(usbctrl.o)
 .debug_aranges
                0x0000000000001540       0x48 /usr/local/xenon/usr/lib/libxenon.a(usbdebug.o)
 .debug_aranges
                0x0000000000001588       0xa8 /usr/local/xenon/usr/lib/libxenon.a(xenon_sfcx.o)
 .debug_aranges
                0x0000000000001630       0x20 /usr/local/xenon/lib/gcc/xenon/4.6.0/../../../../xenon/lib/../lib/libstdc++.a(new_opv.o)
 .debug_aranges
                0x0000000000001650       0x58 /usr/local/xenon/lib/gcc/xenon/4.6.0/../../../../xenon/lib/../lib/libstdc++.a(eh_personality.o)
 .debug_aranges
                0x00000000000016a8       0x38 /usr/local/xenon/lib/gcc/xenon/4.6.0/../../../../xenon/lib/../lib/libstdc++.a(eh_alloc.o)
 .debug_aranges
                0x00000000000016e0       0x30 /usr/local/xenon/lib/gcc/xenon/4.6.0/../../../../xenon/lib/../lib/libstdc++.a(bad_alloc.o)
 .debug_aranges
                0x0000000000001710       0x20 /usr/local/xenon/lib/gcc/xenon/4.6.0/../../../../xenon/lib/../lib/libstdc++.a(del_op.o)
 .debug_aranges
                0x0000000000001730       0x38 /usr/local/xenon/lib/gcc/xenon/4.6.0/../../../../xenon/lib/../lib/libstdc++.a(eh_catch.o)
 .debug_aranges
                0x0000000000001768       0x20 /usr/local/xenon/lib/gcc/xenon/4.6.0/../../../../xenon/lib/../lib/libstdc++.a(new_op.o)
 .debug_aranges
                0x0000000000001788       0x48 /usr/local/xenon/lib/gcc/xenon/4.6.0/../../../../xenon/lib/../lib/libstdc++.a(eh_terminate.o)
 .debug_aranges
                0x00000000000017d0       0x68 /usr/local/xenon/lib/gcc/xenon/4.6.0/../../../../xenon/lib/../lib/libstdc++.a(eh_exception.o)
 .debug_aranges
                0x0000000000001838       0x20 /usr/local/xenon/lib/gcc/xenon/4.6.0/../../../../xenon/lib/../lib/libstdc++.a(eh_call.o)
 .debug_aranges
                0x0000000000001858       0x28 /usr/local/xenon/lib/gcc/xenon/4.6.0/../../../../xenon/lib/../lib/libstdc++.a(eh_globals.o)
 .debug_aranges
                0x0000000000001880       0x50 /usr/local/xenon/lib/gcc/xenon/4.6.0/../../../../xenon/lib/../lib/libstdc++.a(class_type_info.o)
 .debug_aranges
                0x00000000000018d0       0x40 /usr/local/xenon/lib/gcc/xenon/4.6.0/../../../../xenon/lib/../lib/libstdc++.a(si_class_type_info.o)
 .debug_aranges
                0x0000000000001910       0x48 /usr/local/xenon/lib/gcc/xenon/4.6.0/../../../../xenon/lib/../lib/libstdc++.a(tinfo.o)
 .debug_aranges
                0x0000000000001958       0x30 /usr/local/xenon/lib/gcc/xenon/4.6.0/../../../../xenon/lib/../lib/libstdc++.a(eh_throw.o)
 .debug_aranges
                0x0000000000001988       0x20 /usr/local/xenon/lib/gcc/xenon/4.6.0/../../../../xenon/lib/../lib/libstdc++.a(pure.o)
 .debug_aranges
                0x00000000000019a8       0x20 /usr/local/xenon/lib/gcc/xenon/4.6.0/../../../../xenon/lib/../lib/libstdc++.a(vterminate.o)
 .debug_aranges
                0x00000000000019c8       0x20 /usr/local/xenon/lib/gcc/xenon/4.6.0/../../../../xenon/lib/../lib/libstdc++.a(new_handler.o)
 .debug_aranges
                0x00000000000019e8       0x20 /usr/local/xenon/lib/gcc/xenon/4.6.0/../../../../xenon/lib/../lib/libstdc++.a(cp-demangle.o)
 .debug_aranges
                0x0000000000001a08       0x20 /usr/local/xenon/lib/gcc/xenon/4.6.0/../../../../xenon/lib/../lib/libstdc++.a(eh_type.o)
 .debug_aranges
                0x0000000000001a28       0x20 /usr/local/xenon/xenon/lib/32/libm.a(lib_a-s_floor.o)
 .debug_aranges
                0x0000000000001a48       0x20 /usr/local/xenon/xenon/lib/32/libm.a(lib_a-s_frexp.o)
 .debug_aranges
                0x0000000000001a68       0x20 /usr/local/xenon/xenon/lib/32/libm.a(lib_a-s_modf.o)
 .debug_aranges
                0x0000000000001a88       0x20 /usr/local/xenon/xenon/lib/32/libm.a(lib_a-s_trunc.o)
 .debug_aranges
                0x0000000000001aa8       0x20 /usr/local/xenon/xenon/lib/32/libm.a(lib_a-w_pow.o)
 .debug_aranges
                0x0000000000001ac8       0x20 /usr/local/xenon/xenon/lib/32/libm.a(lib_a-e_pow.o)
 .debug_aranges
                0x0000000000001ae8       0x20 /usr/local/xenon/xenon/lib/32/libm.a(lib_a-e_sqrt.o)
 .debug_aranges
                0x0000000000001b08       0x20 /usr/local/xenon/xenon/lib/32/libm.a(lib_a-s_fabs.o)
 .debug_aranges
                0x0000000000001b28       0x20 /usr/local/xenon/xenon/lib/32/libm.a(lib_a-s_finite.o)
 .debug_aranges
                0x0000000000001b48       0x20 /usr/local/xenon/xenon/lib/32/libm.a(lib_a-s_isnand.o)
 .debug_aranges
                0x0000000000001b68       0x20 /usr/local/xenon/xenon/lib/32/libm.a(lib_a-s_matherr.o)
 .debug_aranges
                0x0000000000001b88       0x20 /usr/local/xenon/xenon/lib/32/libm.a(lib_a-s_nan.o)
 .debug_aranges
                0x0000000000001ba8       0x20 /usr/local/xenon/xenon/lib/32/libm.a(lib_a-s_rint.o)
 .debug_aranges
                0x0000000000001bc8       0x20 /usr/local/xenon/xenon/lib/32/libm.a(lib_a-s_scalbn.o)
 .debug_aranges
                0x0000000000001be8       0x20 /usr/local/xenon/xenon/lib/32/libm.a(lib_a-s_copysign.o)
 .debug_aranges
                0x0000000000001c08       0x20 /usr/local/xenon/lib/gcc/xenon/4.6.0/32/libgcc.a(crtsavgpr.o)
 .debug_aranges
                0x0000000000001c28       0x20 /usr/local/xenon/lib/gcc/xenon/4.6.0/32/libgcc.a(crtresxgpr.o)
 .debug_aranges
                0x0000000000001c48       0x20 /usr/local/xenon/lib/gcc/xenon/4.6.0/32/libgcc.a(unwind-dw2.o)
 .debug_aranges
                0x0000000000001c68       0x20 /usr/local/xenon/lib/gcc/xenon/4.6.0/32/libgcc.a(unwind-dw2-fde-glibc.o)
 .debug_aranges
                0x0000000000001c88       0x20 /usr/local/xenon/xenon/lib/32/libc.a(lib_a-abort.o)
 .debug_aranges
                0x0000000000001ca8       0x20 /usr/local/xenon/xenon/lib/32/libc.a(lib_a-assert.o)
 .debug_aranges
                0x0000000000001cc8       0x20 /usr/local/xenon/xenon/lib/32/libc.a(lib_a-atof.o)
 .debug_aranges
                0x0000000000001ce8       0x20 /usr/local/xenon/xenon/lib/32/libc.a(lib_a-atoi.o)
 .debug_aranges
                0x0000000000001d08       0x20 /usr/local/xenon/xenon/lib/32/libc.a(lib_a-cxa_atexit.o)
 .debug_aranges
                0x0000000000001d28       0x20 /usr/local/xenon/xenon/lib/32/libc.a(lib_a-errno.o)
 .debug_aranges
                0x0000000000001d48       0x20 /usr/local/xenon/xenon/lib/32/libc.a(lib_a-exit.o)
 .debug_aranges
                0x0000000000001d68       0x20 /usr/local/xenon/xenon/lib/32/libc.a(lib_a-fclose.o)
 .debug_aranges
                0x0000000000001d88       0x20 /usr/local/xenon/xenon/lib/32/libc.a(lib_a-fflush.o)
 .debug_aranges
                0x0000000000001da8       0x20 /usr/local/xenon/xenon/lib/32/libc.a(lib_a-findfp.o)
 .debug_aranges
                0x0000000000001dc8       0x20 /usr/local/xenon/xenon/lib/32/libc.a(lib_a-fiprintf.o)
 .debug_aranges
                0x0000000000001de8       0x20 /usr/local/xenon/xenon/lib/32/libc.a(lib_a-fopen.o)
 .debug_aranges
                0x0000000000001e08       0x20 /usr/local/xenon/xenon/lib/32/libc.a(lib_a-fprintf.o)
 .debug_aranges
                0x0000000000001e28       0x20 /usr/local/xenon/xenon/lib/32/libc.a(lib_a-fputc.o)
 .debug_aranges
                0x0000000000001e48       0x20 /usr/local/xenon/xenon/lib/32/libc.a(lib_a-fputs.o)
 .debug_aranges
                0x0000000000001e68       0x20 /usr/local/xenon/xenon/lib/32/libc.a(lib_a-fread.o)
 .debug_aranges
                0x0000000000001e88       0x20 /usr/local/xenon/xenon/lib/32/libc.a(lib_a-freer.o)
 .debug_aranges
                0x0000000000001ea8       0x20 /usr/local/xenon/xenon/lib/32/libc.a(lib_a-fseek.o)
 .debug_aranges
                0x0000000000001ec8       0x20 /usr/local/xenon/xenon/lib/32/libc.a(lib_a-fstatr.o)
 .debug_aranges
                0x0000000000001ee8       0x20 /usr/local/xenon/xenon/lib/32/libc.a(lib_a-ftell.o)
 .debug_aranges
                0x0000000000001f08       0x20 /usr/local/xenon/xenon/lib/32/libc.a(lib_a-fvwrite.o)
 .debug_aranges
                0x0000000000001f28       0x20 /usr/local/xenon/xenon/lib/32/libc.a(lib_a-fwalk.o)
 .debug_aranges
                0x0000000000001f48       0x20 /usr/local/xenon/xenon/lib/32/libc.a(lib_a-fwrite.o)
 .debug_aranges
                0x0000000000001f68       0x20 /usr/local/xenon/xenon/lib/32/libc.a(lib_a-makebuf.o)
 .debug_aranges
                0x0000000000001f88       0x20 /usr/local/xenon/xenon/lib/32/libc.a(lib_a-malign.o)
 .debug_aranges
                0x0000000000001fa8       0x20 /usr/local/xenon/xenon/lib/32/libc.a(lib_a-malignr.o)
 .debug_aranges
                0x0000000000001fc8       0x20 /usr/local/xenon/xenon/lib/32/libc.a(lib_a-malloc.o)
 .debug_aranges
                0x0000000000001fe8       0x20 /usr/local/xenon/xenon/lib/32/libc.a(lib_a-mallocr.o)
 .debug_aranges
                0x0000000000002008       0x20 /usr/local/xenon/xenon/lib/32/libc.a(lib_a-memchr.o)
 .debug_aranges
                0x0000000000002028       0x20 /usr/local/xenon/xenon/lib/32/libc.a(lib_a-memcmp.o)
 .debug_aranges
                0x0000000000002048       0x20 /usr/local/xenon/xenon/lib/32/libc.a(lib_a-memcpy.o)
 .debug_aranges
                0x0000000000002068       0x20 /usr/local/xenon/xenon/lib/32/libc.a(lib_a-memmove.o)
 .debug_aranges
                0x0000000000002088       0x20 /usr/local/xenon/xenon/lib/32/libc.a(lib_a-memset.o)
 .debug_aranges
                0x00000000000020a8       0x20 /usr/local/xenon/xenon/lib/32/libc.a(lib_a-mlock.o)
 .debug_aranges
                0x00000000000020c8       0x20 /usr/local/xenon/xenon/lib/32/libc.a(lib_a-openr.o)
 .debug_aranges
                0x00000000000020e8       0x20 /usr/local/xenon/xenon/lib/32/libc.a(lib_a-printf.o)
 .debug_aranges
                0x0000000000002108       0x20 /usr/local/xenon/xenon/lib/32/libc.a(lib_a-putchar.o)
 .debug_aranges
                0x0000000000002128       0x20 /usr/local/xenon/xenon/lib/32/libc.a(lib_a-putc.o)
 .debug_aranges
                0x0000000000002148       0x20 /usr/local/xenon/xenon/lib/32/libc.a(lib_a-puts.o)
 .debug_aranges
                0x0000000000002168       0x20 /usr/local/xenon/xenon/lib/32/libc.a(lib_a-rand.o)
 .debug_aranges
                0x0000000000002188       0x20 /usr/local/xenon/xenon/lib/32/libc.a(lib_a-realloc.o)
 .debug_aranges
                0x00000000000021a8       0x20 /usr/local/xenon/xenon/lib/32/libc.a(lib_a-reallocr.o)
 .debug_aranges
                0x00000000000021c8       0x20 /usr/local/xenon/xenon/lib/32/libc.a(lib_a-reent.o)
 .debug_aranges
                0x00000000000021e8       0x20 /usr/local/xenon/xenon/lib/32/libc.a(lib_a-refill.o)
 .debug_aranges
                0x0000000000002208       0x20 /usr/local/xenon/xenon/lib/32/libc.a(lib_a-sbrkr.o)
 .debug_aranges
                0x0000000000002228       0x20 /usr/local/xenon/xenon/lib/32/libc.a(lib_a-signal.o)
 .debug_aranges
                0x0000000000002248       0x20 /usr/local/xenon/xenon/lib/32/libc.a(lib_a-signalr.o)
 .debug_aranges
                0x0000000000002268       0x20 /usr/local/xenon/xenon/lib/32/libc.a(lib_a-snprintf.o)
 .debug_aranges
                0x0000000000002288       0x20 /usr/local/xenon/xenon/lib/32/libc.a(lib_a-sprintf.o)
 .debug_aranges
                0x00000000000022a8       0x20 /usr/local/xenon/xenon/lib/32/libc.a(lib_a-stdio.o)
 .debug_aranges
                0x00000000000022c8       0x20 /usr/local/xenon/xenon/lib/32/libc.a(lib_a-strcasecmp.o)
 .debug_aranges
                0x00000000000022e8       0x20 /usr/local/xenon/xenon/lib/32/libc.a(lib_a-strcat.o)
 .debug_aranges
                0x0000000000002308       0x20 /usr/local/xenon/xenon/lib/32/libc.a(lib_a-strchr.o)
 .debug_aranges
                0x0000000000002328       0x20 /usr/local/xenon/xenon/lib/32/libc.a(lib_a-strcmp.o)
 .debug_aranges
                0x0000000000002348       0x20 /usr/local/xenon/xenon/lib/32/libc.a(lib_a-strcpy.o)
 .debug_aranges
                0x0000000000002368       0x20 /usr/local/xenon/xenon/lib/32/libc.a(lib_a-strlcpy.o)
 .debug_aranges
                0x0000000000002388       0x20 /usr/local/xenon/xenon/lib/32/libc.a(lib_a-strlen.o)
 .debug_aranges
                0x00000000000023a8       0x20 /usr/local/xenon/xenon/lib/32/libc.a(lib_a-strncasecmp.o)
 .debug_aranges
                0x00000000000023c8       0x20 /usr/local/xenon/xenon/lib/32/libc.a(lib_a-strncmp.o)
 .debug_aranges
                0x00000000000023e8       0x20 /usr/local/xenon/xenon/lib/32/libc.a(lib_a-strncpy.o)
 .debug_aranges
                0x0000000000002408       0x20 /usr/local/xenon/xenon/lib/32/libc.a(lib_a-strrchr.o)
 .debug_aranges
                0x0000000000002428       0x20 /usr/local/xenon/xenon/lib/32/libc.a(lib_a-strtod.o)
 .debug_aranges
                0x0000000000002448       0x20 /usr/local/xenon/xenon/lib/32/libc.a(lib_a-strtok_r.o)
 .debug_aranges
                0x0000000000002468       0x20 /usr/local/xenon/xenon/lib/32/libc.a(lib_a-strtol.o)
 .debug_aranges
                0x0000000000002488       0x20 /usr/local/xenon/xenon/lib/32/libc.a(lib_a-svfprintf.o)
 .debug_aranges
                0x00000000000024a8       0x20 /usr/local/xenon/xenon/lib/32/libc.a(lib_a-vfiprintf.o)
 .debug_aranges
                0x00000000000024c8       0x20 /usr/local/xenon/xenon/lib/32/libc.a(lib_a-vfprintf.o)
 .debug_aranges
                0x00000000000024e8       0x20 /usr/local/xenon/xenon/lib/32/libc.a(lib_a-vprintf.o)
 .debug_aranges
                0x0000000000002508       0x20 /usr/local/xenon/xenon/lib/32/libc.a(lib_a-vsprintf.o)
 .debug_aranges
                0x0000000000002528       0x20 /usr/local/xenon/xenon/lib/32/libc.a(lib_a-wbuf.o)
 .debug_aranges
                0x0000000000002548       0x20 /usr/local/xenon/xenon/lib/32/libc.a(lib_a-writer.o)
 .debug_aranges
                0x0000000000002568       0x20 /usr/local/xenon/xenon/lib/32/libc.a(lib_a-wsetup.o)
 .debug_aranges
                0x0000000000002588       0x20 /usr/local/xenon/xenon/lib/32/libc.a(lib_a-__atexit.o)
 .debug_aranges
                0x00000000000025a8       0x20 /usr/local/xenon/xenon/lib/32/libc.a(lib_a-__call_atexit.o)
 .debug_aranges
                0x00000000000025c8       0x20 /usr/local/xenon/xenon/lib/32/libc.a(lib_a-closer.o)
 .debug_aranges
                0x00000000000025e8       0x20 /usr/local/xenon/xenon/lib/32/libc.a(lib_a-dtoa.o)
 .debug_aranges
                0x0000000000002608       0x20 /usr/local/xenon/xenon/lib/32/libc.a(lib_a-flags.o)
 .debug_aranges
                0x0000000000002628       0x20 /usr/local/xenon/xenon/lib/32/libc.a(lib_a-gdtoa-gethex.o)
 .debug_aranges
                0x0000000000002648       0x20 /usr/local/xenon/xenon/lib/32/libc.a(lib_a-gdtoa-hexnan.o)
 .debug_aranges
                0x0000000000002668       0x20 /usr/local/xenon/xenon/lib/32/libc.a(lib_a-isattyr.o)
 .debug_aranges
                0x0000000000002688       0x20 /usr/local/xenon/xenon/lib/32/libc.a(lib_a-locale.o)
 .debug_aranges
                0x00000000000026a8       0x20 /usr/local/xenon/xenon/lib/32/libc.a(lib_a-lseekr.o)
 .debug_aranges
                0x00000000000026c8       0x20 /usr/local/xenon/xenon/lib/32/libc.a(lib_a-mprec.o)
 .debug_aranges
                0x00000000000026e8       0x20 /usr/local/xenon/xenon/lib/32/libc.a(lib_a-readr.o)
 .debug_aranges
                0x0000000000002708       0x20 /usr/local/xenon/xenon/lib/32/libc.a(lib_a-sf_nan.o)
 .debug_aranges
                0x0000000000002728       0x20 /usr/local/xenon/xenon/lib/32/libc.a(lib_a-s_isinfd.o)
 .debug_aranges
                0x0000000000002748       0x20 /usr/local/xenon/xenon/lib/32/libc.a(lib_a-callocr.o)
 .debug_aranges
                0x0000000000002768       0x20 /usr/local/xenon/lib/gcc/xenon/4.6.0/32/libgcc.a(_udivdi3.o)
 .debug_aranges
                0x0000000000002788       0x20 /usr/local/xenon/lib/gcc/xenon/4.6.0/32/libgcc.a(_umoddi3.o)

.debug_ranges   0x0000000000000000     0x9630
 .debug_ranges  0x0000000000000000       0x10 /usr/local/xenon/lib/gcc/xenon/4.6.0/../../../../xenon/lib/../lib/crt1.o
 .debug_ranges  0x0000000000000010      0x128 main.o
 .debug_ranges  0x0000000000000138      0x160 Tank.o
 .debug_ranges  0x0000000000000298       0x18 Tools.o
 .debug_ranges  0x00000000000002b0      0x130 Console.o
 .debug_ranges  0x00000000000003e0       0xc0 Draw.o
 .debug_ranges  0x00000000000004a0      0x208 Font.o
 .debug_ranges  0x00000000000006a8       0xf0 Utils.o
 .debug_ranges  0x0000000000000798      0x2e8 /usr/local/xenon/usr/lib/libxenon.a(ata.o)
 .debug_ranges  0x0000000000000a80       0x18 /usr/local/xenon/usr/lib/libxenon.a(input.o)
 .debug_ranges  0x0000000000000a98       0xf8 /usr/local/xenon/usr/lib/libxenon.a(newlib.o)
 .debug_ranges  0x0000000000000b90       0x30 /usr/local/xenon/usr/lib/libxenon.a(time.o)
 .debug_ranges  0x0000000000000bc0       0x28 /usr/local/xenon/usr/lib/libxenon.a(usbmain.o)
 .debug_ranges  0x0000000000000be8      0x530 /usr/local/xenon/usr/lib/libxenon.a(tinyehci.o)
 .debug_ranges  0x0000000000001118       0x80 /usr/local/xenon/usr/lib/libxenon.a(xenon_smc.o)
 .debug_ranges  0x0000000000001198       0x20 /usr/local/xenon/usr/lib/libxenon.a(xenon_uart.o)
 .debug_ranges  0x00000000000011b8      0x138 /usr/local/xenon/usr/lib/libxenon.a(edram.o)
 .debug_ranges  0x00000000000012f0      0x678 /usr/local/xenon/usr/lib/libxenon.a(xe.o)
 .debug_ranges  0x0000000000001968       0xd8 /usr/local/xenon/usr/lib/libxenon.a(xenos.o)
 .debug_ranges  0x0000000000001a40       0x38 /usr/local/xenon/usr/lib/libxenon.a(diskio.o)
 .debug_ranges  0x0000000000001a78       0x60 /usr/local/xenon/usr/lib/libxenon.a(fat.o)
 .debug_ranges  0x0000000000001ad8      0x640 /usr/local/xenon/usr/lib/libxenon.a(fat_rb.o)
 .debug_ranges  0x0000000000002118       0x90 /usr/local/xenon/usr/lib/libxenon.a(file_rb.o)
 .debug_ranges  0x00000000000021a8       0x38 /usr/local/xenon/usr/lib/libxenon.a(dir_rb.o)
 .debug_ranges  0x00000000000021e0      0x2e8 /usr/local/xenon/usr/lib/libxenon.a(iso9660.o)
 .debug_ranges  0x00000000000024c8       0x48 /usr/local/xenon/usr/lib/libxenon.a(lib_malloc.o)
 .debug_ranges  0x0000000000002510       0x28 /usr/local/xenon/usr/lib/libxenon.a(io.o)
 .debug_ranges  0x0000000000002538      0x1e0 /usr/local/xenon/usr/lib/libxenon.a(ohci.o)
 .debug_ranges  0x0000000000002718      0x118 /usr/local/xenon/usr/lib/libxenon.a(usbd.o)
 .debug_ranges  0x0000000000002830       0x10 /usr/local/xenon/usr/lib/libxenon.a(usbdevs.o)
 .debug_ranges  0x0000000000002840       0x70 /usr/local/xenon/usr/lib/libxenon.a(usbhid.o)
 .debug_ranges  0x00000000000028b0       0x88 /usr/local/xenon/usr/lib/libxenon.a(usbhub.o)
 .debug_ranges  0x0000000000002938       0x68 /usr/local/xenon/usr/lib/libxenon.a(usb_os.o)
 .debug_ranges  0x00000000000029a0       0x38 /usr/local/xenon/usr/lib/libxenon.a(unicode_rb.o)
 .debug_ranges  0x00000000000029d8       0x20 /usr/local/xenon/usr/lib/libxenon.a(xenon_gpio.o)
 .debug_ranges  0x00000000000029f8       0x28 /usr/local/xenon/usr/lib/libxenon.a(xenon_config.o)
 .debug_ranges  0x0000000000002a20       0x58 /usr/local/xenon/usr/lib/libxenon.a(disk_rb.o)
 .debug_ranges  0x0000000000002a78       0x38 /usr/local/xenon/usr/lib/libxenon.a(lib_queue.o)
 .debug_ranges  0x0000000000002ab0       0x70 /usr/local/xenon/usr/lib/libxenon.a(usbctrl.o)
 .debug_ranges  0x0000000000002b20       0x68 /usr/local/xenon/usr/lib/libxenon.a(usbdebug.o)
 .debug_ranges  0x0000000000002b88      0x368 /usr/local/xenon/usr/lib/libxenon.a(xenon_sfcx.o)
 .debug_ranges  0x0000000000002ef0       0x10 /usr/local/xenon/lib/gcc/xenon/4.6.0/../../../../xenon/lib/../lib/libstdc++.a(new_opv.o)
 .debug_ranges  0x0000000000002f00      0x368 /usr/local/xenon/lib/gcc/xenon/4.6.0/../../../../xenon/lib/../lib/libstdc++.a(eh_personality.o)
 .debug_ranges  0x0000000000003268       0xe8 /usr/local/xenon/lib/gcc/xenon/4.6.0/../../../../xenon/lib/../lib/libstdc++.a(eh_alloc.o)
 .debug_ranges  0x0000000000003350       0x20 /usr/local/xenon/lib/gcc/xenon/4.6.0/../../../../xenon/lib/../lib/libstdc++.a(bad_alloc.o)
 .debug_ranges  0x0000000000003370       0x10 /usr/local/xenon/lib/gcc/xenon/4.6.0/../../../../xenon/lib/../lib/libstdc++.a(del_op.o)
 .debug_ranges  0x0000000000003380       0xb8 /usr/local/xenon/lib/gcc/xenon/4.6.0/../../../../xenon/lib/../lib/libstdc++.a(eh_catch.o)
 .debug_ranges  0x0000000000003438       0x60 /usr/local/xenon/lib/gcc/xenon/4.6.0/../../../../xenon/lib/../lib/libstdc++.a(new_op.o)
 .debug_ranges  0x0000000000003498       0x68 /usr/local/xenon/lib/gcc/xenon/4.6.0/../../../../xenon/lib/../lib/libstdc++.a(eh_terminate.o)
 .debug_ranges  0x0000000000003500       0x58 /usr/local/xenon/lib/gcc/xenon/4.6.0/../../../../xenon/lib/../lib/libstdc++.a(eh_exception.o)
 .debug_ranges  0x0000000000003558       0x10 /usr/local/xenon/lib/gcc/xenon/4.6.0/../../../../xenon/lib/../lib/libstdc++.a(eh_call.o)
 .debug_ranges  0x0000000000003568       0x18 /usr/local/xenon/lib/gcc/xenon/4.6.0/../../../../xenon/lib/../lib/libstdc++.a(eh_globals.o)
 .debug_ranges  0x0000000000003580      0x148 /usr/local/xenon/lib/gcc/xenon/4.6.0/../../../../xenon/lib/../lib/libstdc++.a(class_type_info.o)
 .debug_ranges  0x00000000000036c8       0x78 /usr/local/xenon/lib/gcc/xenon/4.6.0/../../../../xenon/lib/../lib/libstdc++.a(si_class_type_info.o)
 .debug_ranges  0x0000000000003740       0x38 /usr/local/xenon/lib/gcc/xenon/4.6.0/../../../../xenon/lib/../lib/libstdc++.a(tinfo.o)
 .debug_ranges  0x0000000000003778       0x58 /usr/local/xenon/lib/gcc/xenon/4.6.0/../../../../xenon/lib/../lib/libstdc++.a(eh_throw.o)
 .debug_ranges  0x00000000000037d0       0x10 /usr/local/xenon/lib/gcc/xenon/4.6.0/../../../../xenon/lib/../lib/libstdc++.a(pure.o)
 .debug_ranges  0x00000000000037e0       0x88 /usr/local/xenon/lib/gcc/xenon/4.6.0/../../../../xenon/lib/../lib/libstdc++.a(vterminate.o)
 .debug_ranges  0x0000000000003868       0x28 /usr/local/xenon/lib/gcc/xenon/4.6.0/../../../../xenon/lib/../lib/libstdc++.a(new_handler.o)
 .debug_ranges  0x0000000000003890     0x3d68 /usr/local/xenon/lib/gcc/xenon/4.6.0/../../../../xenon/lib/../lib/libstdc++.a(cp-demangle.o)
 .debug_ranges  0x00000000000075f8       0x28 /usr/local/xenon/lib/gcc/xenon/4.6.0/../../../../xenon/lib/../lib/libstdc++.a(eh_type.o)
 .debug_ranges  0x0000000000007620       0x40 /usr/local/xenon/xenon/lib/32/libm.a(lib_a-s_floor.o)
 .debug_ranges  0x0000000000007660       0x50 /usr/local/xenon/xenon/lib/32/libm.a(lib_a-s_frexp.o)
 .debug_ranges  0x00000000000076b0       0x80 /usr/local/xenon/xenon/lib/32/libm.a(lib_a-s_modf.o)
 .debug_ranges  0x0000000000007730      0x248 /usr/local/xenon/xenon/lib/32/libm.a(lib_a-e_pow.o)
 .debug_ranges  0x0000000000007978       0x18 /usr/local/xenon/xenon/lib/32/libm.a(lib_a-e_sqrt.o)
 .debug_ranges  0x0000000000007990       0x18 /usr/local/xenon/xenon/lib/32/libm.a(lib_a-s_nan.o)
 .debug_ranges  0x00000000000079a8       0x68 /usr/local/xenon/xenon/lib/32/libm.a(lib_a-s_rint.o)
 .debug_ranges  0x0000000000007a10       0x80 /usr/local/xenon/xenon/lib/32/libm.a(lib_a-s_scalbn.o)
 .debug_ranges  0x0000000000007a90       0x30 /usr/local/xenon/xenon/lib/32/libm.a(lib_a-s_copysign.o)
 .debug_ranges  0x0000000000007ac0      0xe18 /usr/local/xenon/lib/gcc/xenon/4.6.0/32/libgcc.a(unwind-dw2.o)
 .debug_ranges  0x00000000000088d8      0x3a8 /usr/local/xenon/lib/gcc/xenon/4.6.0/32/libgcc.a(unwind-dw2-fde-glibc.o)
 .debug_ranges  0x0000000000008c80       0x20 /usr/local/xenon/xenon/lib/32/libc.a(lib_a-fflush.o)
 .debug_ranges  0x0000000000008ca0       0x38 /usr/local/xenon/xenon/lib/32/libc.a(lib_a-fread.o)
 .debug_ranges  0x0000000000008cd8       0x20 /usr/local/xenon/xenon/lib/32/libc.a(lib_a-fvwrite.o)
 .debug_ranges  0x0000000000008cf8       0x60 /usr/local/xenon/xenon/lib/32/libc.a(lib_a-fwalk.o)
 .debug_ranges  0x0000000000008d58       0x50 /usr/local/xenon/xenon/lib/32/libc.a(lib_a-mallocr.o)
 .debug_ranges  0x0000000000008da8       0xf8 /usr/local/xenon/xenon/lib/32/libc.a(lib_a-reallocr.o)
 .debug_ranges  0x0000000000008ea0       0x30 /usr/local/xenon/xenon/lib/32/libc.a(lib_a-signal.o)
 .debug_ranges  0x0000000000008ed0       0x18 /usr/local/xenon/xenon/lib/32/libc.a(lib_a-strcasecmp.o)
 .debug_ranges  0x0000000000008ee8       0x20 /usr/local/xenon/xenon/lib/32/libc.a(lib_a-strcat.o)
 .debug_ranges  0x0000000000008f08       0x50 /usr/local/xenon/xenon/lib/32/libc.a(lib_a-strncasecmp.o)
 .debug_ranges  0x0000000000008f58       0x68 /usr/local/xenon/xenon/lib/32/libc.a(lib_a-strtod.o)
 .debug_ranges  0x0000000000008fc0      0x1b0 /usr/local/xenon/xenon/lib/32/libc.a(lib_a-svfprintf.o)
 .debug_ranges  0x0000000000009170       0x68 /usr/local/xenon/xenon/lib/32/libc.a(lib_a-vfiprintf.o)
 .debug_ranges  0x00000000000091d8      0x1a0 /usr/local/xenon/xenon/lib/32/libc.a(lib_a-vfprintf.o)
 .debug_ranges  0x0000000000009378       0x28 /usr/local/xenon/xenon/lib/32/libc.a(lib_a-__call_atexit.o)
 .debug_ranges  0x00000000000093a0       0x70 /usr/local/xenon/xenon/lib/32/libc.a(lib_a-gdtoa-gethex.o)
 .debug_ranges  0x0000000000009410       0x18 /usr/local/xenon/xenon/lib/32/libc.a(lib_a-callocr.o)
 .debug_ranges  0x0000000000009428       0xf8 /usr/local/xenon/lib/gcc/xenon/4.6.0/32/libgcc.a(_udivdi3.o)
 .debug_ranges  0x0000000000009520      0x110 /usr/local/xenon/lib/gcc/xenon/4.6.0/32/libgcc.a(_umoddi3.o)

.debug_line     0x0000000000000000    0x1d797
 .debug_line    0x0000000000000000       0x51 /usr/local/xenon/lib/gcc/xenon/4.6.0/../../../../xenon/lib/../lib/crt1.o
 .debug_line    0x0000000000000051      0x6e9 main.o
 .debug_line    0x000000000000073a      0x701 Tank.o
 .debug_line    0x0000000000000e3b       0xa2 Tools.o
 .debug_line    0x0000000000000edd      0x3b8 Console.o
 .debug_line    0x0000000000001295      0x355 Draw.o
 .debug_line    0x00000000000015ea      0x4eb Font.o
 .debug_line    0x0000000000001ad5        0x0 stdafx.o
 .debug_line    0x0000000000001ad5      0x33e Utils.o
 .debug_line    0x0000000000001e13      0x122 zlx.o
 .debug_line    0x0000000000001f35      0x532 /usr/local/xenon/usr/lib/libxenon.a(ata.o)
 .debug_line    0x0000000000002467       0x75 /usr/local/xenon/usr/lib/libxenon.a(input.o)
 .debug_line    0x00000000000024dc      0x3f3 /usr/local/xenon/usr/lib/libxenon.a(newlib.o)
 .debug_line    0x00000000000028cf       0x82 /usr/local/xenon/usr/lib/libxenon.a(vm.o)
 .debug_line    0x0000000000002951      0x125 /usr/local/xenon/usr/lib/libxenon.a(time.o)
 .debug_line    0x0000000000002a76      0x169 /usr/local/xenon/usr/lib/libxenon.a(usbmain.o)
 .debug_line    0x0000000000002bdf     0x1029 /usr/local/xenon/usr/lib/libxenon.a(tinyehci.o)
 .debug_line    0x0000000000003c08      0x275 /usr/local/xenon/usr/lib/libxenon.a(xenon_smc.o)
 .debug_line    0x0000000000003e7d       0xe9 /usr/local/xenon/usr/lib/libxenon.a(xenon_uart.o)
 .debug_line    0x0000000000003f66      0xb4a /usr/local/xenon/usr/lib/libxenon.a(edram.o)
 .debug_line    0x0000000000004ab0     0x16fe /usr/local/xenon/usr/lib/libxenon.a(xe.o)
 .debug_line    0x00000000000061ae      0x3ae /usr/local/xenon/usr/lib/libxenon.a(xenos.o)
 .debug_line    0x000000000000655c      0x200 /usr/local/xenon/usr/lib/libxenon.a(diskio.o)
 .debug_line    0x000000000000675c      0x22d /usr/local/xenon/usr/lib/libxenon.a(fat.o)
 .debug_line    0x0000000000006989      0xdbe /usr/local/xenon/usr/lib/libxenon.a(fat_rb.o)
 .debug_line    0x0000000000007747      0x44f /usr/local/xenon/usr/lib/libxenon.a(file_rb.o)
 .debug_line    0x0000000000007b96      0x19b /usr/local/xenon/usr/lib/libxenon.a(dir_rb.o)
 .debug_line    0x0000000000007d31      0x674 /usr/local/xenon/usr/lib/libxenon.a(iso9660.o)
 .debug_line    0x00000000000083a5      0x1c3 /usr/local/xenon/usr/lib/libxenon.a(lib_malloc.o)
 .debug_line    0x0000000000008568       0xc1 /usr/local/xenon/usr/lib/libxenon.a(io.o)
 .debug_line    0x0000000000008629      0x697 /usr/local/xenon/usr/lib/libxenon.a(ohci.o)
 .debug_line    0x0000000000008cc0      0x52d /usr/local/xenon/usr/lib/libxenon.a(usbd.o)
 .debug_line    0x00000000000091ed      0x12e /usr/local/xenon/usr/lib/libxenon.a(usbdevs.o)
 .debug_line    0x000000000000931b      0x1bb /usr/local/xenon/usr/lib/libxenon.a(usbhid.o)
 .debug_line    0x00000000000094d6      0x34a /usr/local/xenon/usr/lib/libxenon.a(usbhub.o)
 .debug_line    0x0000000000009820      0x199 /usr/local/xenon/usr/lib/libxenon.a(usb_os.o)
 .debug_line    0x00000000000099b9      0x14d /usr/local/xenon/usr/lib/libxenon.a(unicode_rb.o)
 .debug_line    0x0000000000009b06       0xd0 /usr/local/xenon/usr/lib/libxenon.a(xenon_gpio.o)
 .debug_line    0x0000000000009bd6      0x17b /usr/local/xenon/usr/lib/libxenon.a(xenon_config.o)
 .debug_line    0x0000000000009d51       0xa2 /usr/local/xenon/usr/lib/libxenon.a(ucode.o)
 .debug_line    0x0000000000009df3      0x1b2 /usr/local/xenon/usr/lib/libxenon.a(disk_rb.o)
 .debug_line    0x0000000000009fa5       0xec /usr/local/xenon/usr/lib/libxenon.a(lib_queue.o)
 .debug_line    0x000000000000a091      0x1ec /usr/local/xenon/usr/lib/libxenon.a(usbctrl.o)
 .debug_line    0x000000000000a27d      0x2cd /usr/local/xenon/usr/lib/libxenon.a(usbdebug.o)
 .debug_line    0x000000000000a54a      0x461 /usr/local/xenon/usr/lib/libxenon.a(xenon_sfcx.o)
 .debug_line    0x000000000000a9ab       0xdd /usr/local/xenon/lib/gcc/xenon/4.6.0/../../../../xenon/lib/../lib/libstdc++.a(new_opv.o)
 .debug_line    0x000000000000aa88      0x653 /usr/local/xenon/lib/gcc/xenon/4.6.0/../../../../xenon/lib/../lib/libstdc++.a(eh_personality.o)
 .debug_line    0x000000000000b0db      0x335 /usr/local/xenon/lib/gcc/xenon/4.6.0/../../../../xenon/lib/../lib/libstdc++.a(eh_alloc.o)
 .debug_line    0x000000000000b410       0xa2 /usr/local/xenon/lib/gcc/xenon/4.6.0/../../../../xenon/lib/../lib/libstdc++.a(bad_alloc.o)
 .debug_line    0x000000000000b4b2      0x13c /usr/local/xenon/lib/gcc/xenon/4.6.0/../../../../xenon/lib/../lib/libstdc++.a(del_op.o)
 .debug_line    0x000000000000b5ee      0x258 /usr/local/xenon/lib/gcc/xenon/4.6.0/../../../../xenon/lib/../lib/libstdc++.a(eh_catch.o)
 .debug_line    0x000000000000b846      0x215 /usr/local/xenon/lib/gcc/xenon/4.6.0/../../../../xenon/lib/../lib/libstdc++.a(new_op.o)
 .debug_line    0x000000000000ba5b      0x20e /usr/local/xenon/lib/gcc/xenon/4.6.0/../../../../xenon/lib/../lib/libstdc++.a(eh_terminate.o)
 .debug_line    0x000000000000bc69      0x1ca /usr/local/xenon/lib/gcc/xenon/4.6.0/../../../../xenon/lib/../lib/libstdc++.a(eh_exception.o)
 .debug_line    0x000000000000be33      0x1be /usr/local/xenon/lib/gcc/xenon/4.6.0/../../../../xenon/lib/../lib/libstdc++.a(eh_call.o)
 .debug_line    0x000000000000bff1      0x1c7 /usr/local/xenon/lib/gcc/xenon/4.6.0/../../../../xenon/lib/../lib/libstdc++.a(eh_globals.o)
 .debug_line    0x000000000000c1b8      0x271 /usr/local/xenon/lib/gcc/xenon/4.6.0/../../../../xenon/lib/../lib/libstdc++.a(class_type_info.o)
 .debug_line    0x000000000000c429      0x115 /usr/local/xenon/lib/gcc/xenon/4.6.0/../../../../xenon/lib/../lib/libstdc++.a(eh_term_handler.o)
 .debug_line    0x000000000000c53e      0x201 /usr/local/xenon/lib/gcc/xenon/4.6.0/../../../../xenon/lib/../lib/libstdc++.a(si_class_type_info.o)
 .debug_line    0x000000000000c73f      0x115 /usr/local/xenon/lib/gcc/xenon/4.6.0/../../../../xenon/lib/../lib/libstdc++.a(eh_unex_handler.o)
 .debug_line    0x000000000000c854      0x14a /usr/local/xenon/lib/gcc/xenon/4.6.0/../../../../xenon/lib/../lib/libstdc++.a(tinfo.o)
 .debug_line    0x000000000000c99e      0x1ec /usr/local/xenon/lib/gcc/xenon/4.6.0/../../../../xenon/lib/../lib/libstdc++.a(eh_throw.o)
 .debug_line    0x000000000000cb8a      0x11c /usr/local/xenon/lib/gcc/xenon/4.6.0/../../../../xenon/lib/../lib/libstdc++.a(pure.o)
 .debug_line    0x000000000000cca6      0x244 /usr/local/xenon/lib/gcc/xenon/4.6.0/../../../../xenon/lib/../lib/libstdc++.a(vterminate.o)
 .debug_line    0x000000000000ceea       0x88 /usr/local/xenon/lib/gcc/xenon/4.6.0/../../../../xenon/lib/../lib/libstdc++.a(new_handler.o)
 .debug_line    0x000000000000cf72     0x1fe9 /usr/local/xenon/lib/gcc/xenon/4.6.0/../../../../xenon/lib/../lib/libstdc++.a(cp-demangle.o)
 .debug_line    0x000000000000ef5b      0x141 /usr/local/xenon/lib/gcc/xenon/4.6.0/../../../../xenon/lib/../lib/libstdc++.a(eh_type.o)
 .debug_line    0x000000000000f09c      0x1ae /usr/local/xenon/xenon/lib/32/libm.a(lib_a-s_floor.o)
 .debug_line    0x000000000000f24a      0x187 /usr/local/xenon/xenon/lib/32/libm.a(lib_a-s_frexp.o)
 .debug_line    0x000000000000f3d1      0x152 /usr/local/xenon/xenon/lib/32/libm.a(lib_a-s_modf.o)
 .debug_line    0x000000000000f523      0x141 /usr/local/xenon/xenon/lib/32/libm.a(lib_a-s_trunc.o)
 .debug_line    0x000000000000f664      0x196 /usr/local/xenon/xenon/lib/32/libm.a(lib_a-w_pow.o)
 .debug_line    0x000000000000f7fa      0x340 /usr/local/xenon/xenon/lib/32/libm.a(lib_a-e_pow.o)
 .debug_line    0x000000000000fb3a      0x1d8 /usr/local/xenon/xenon/lib/32/libm.a(lib_a-e_sqrt.o)
 .debug_line    0x000000000000fd12      0x165 /usr/local/xenon/xenon/lib/32/libm.a(lib_a-s_fabs.o)
 .debug_line    0x000000000000fe77      0x12e /usr/local/xenon/xenon/lib/32/libm.a(lib_a-s_finite.o)
 .debug_line    0x000000000000ffa5      0x131 /usr/local/xenon/xenon/lib/32/libm.a(lib_a-s_isnand.o)
 .debug_line    0x00000000000100d6       0x6c /usr/local/xenon/xenon/lib/32/libm.a(lib_a-s_lib_ver.o)
 .debug_line    0x0000000000010142       0xbf /usr/local/xenon/xenon/lib/32/libm.a(lib_a-s_matherr.o)
 .debug_line    0x0000000000010201      0x12b /usr/local/xenon/xenon/lib/32/libm.a(lib_a-s_nan.o)
 .debug_line    0x000000000001032c      0x174 /usr/local/xenon/xenon/lib/32/libm.a(lib_a-s_rint.o)
 .debug_line    0x00000000000104a0      0x1a2 /usr/local/xenon/xenon/lib/32/libm.a(lib_a-s_scalbn.o)
 .debug_line    0x0000000000010642      0x134 /usr/local/xenon/xenon/lib/32/libm.a(lib_a-s_copysign.o)
 .debug_line    0x0000000000010776       0x4d /usr/local/xenon/lib/gcc/xenon/4.6.0/32/libgcc.a(crtsavgpr.o)
 .debug_line    0x00000000000107c3       0x51 /usr/local/xenon/lib/gcc/xenon/4.6.0/32/libgcc.a(crtresxgpr.o)
 .debug_line    0x0000000000010814     0x11ae /usr/local/xenon/lib/gcc/xenon/4.6.0/32/libgcc.a(unwind-dw2.o)
 .debug_line    0x00000000000119c2      0x70d /usr/local/xenon/lib/gcc/xenon/4.6.0/32/libgcc.a(unwind-dw2-fde-glibc.o)
 .debug_line    0x00000000000120cf       0xc1 /usr/local/xenon/xenon/lib/32/libc.a(lib_a-abort.o)
 .debug_line    0x0000000000012190      0x176 /usr/local/xenon/xenon/lib/32/libc.a(lib_a-assert.o)
 .debug_line    0x0000000000012306       0xbf /usr/local/xenon/xenon/lib/32/libc.a(lib_a-atof.o)
 .debug_line    0x00000000000123c5      0x16b /usr/local/xenon/xenon/lib/32/libc.a(lib_a-atoi.o)
 .debug_line    0x0000000000012530       0xab /usr/local/xenon/xenon/lib/32/libc.a(lib_a-ctype_.o)
 .debug_line    0x00000000000125db       0x7e /usr/local/xenon/xenon/lib/32/libc.a(lib_a-cxa_atexit.o)
 .debug_line    0x0000000000012659      0x11a /usr/local/xenon/xenon/lib/32/libc.a(lib_a-errno.o)
 .debug_line    0x0000000000012773      0x164 /usr/local/xenon/xenon/lib/32/libc.a(lib_a-exit.o)
 .debug_line    0x00000000000128d7      0x1ac /usr/local/xenon/xenon/lib/32/libc.a(lib_a-fclose.o)
 .debug_line    0x0000000000012a83      0x266 /usr/local/xenon/xenon/lib/32/libc.a(lib_a-fflush.o)
 .debug_line    0x0000000000012ce9      0x217 /usr/local/xenon/xenon/lib/32/libc.a(lib_a-findfp.o)
 .debug_line    0x0000000000012f00      0x189 /usr/local/xenon/xenon/lib/32/libc.a(lib_a-fiprintf.o)
 .debug_line    0x0000000000013089      0x18c /usr/local/xenon/xenon/lib/32/libc.a(lib_a-fopen.o)
 .debug_line    0x0000000000013215      0x188 /usr/local/xenon/xenon/lib/32/libc.a(lib_a-fprintf.o)
 .debug_line    0x000000000001339d      0x181 /usr/local/xenon/xenon/lib/32/libc.a(lib_a-fputc.o)
 .debug_line    0x000000000001351e      0x197 /usr/local/xenon/xenon/lib/32/libc.a(lib_a-fputs.o)
 .debug_line    0x00000000000136b5      0x218 /usr/local/xenon/xenon/lib/32/libc.a(lib_a-fread.o)
 .debug_line    0x00000000000138cd      0x1ee /usr/local/xenon/xenon/lib/32/libc.a(lib_a-freer.o)
 .debug_line    0x0000000000013abb      0x2c0 /usr/local/xenon/xenon/lib/32/libc.a(lib_a-fseek.o)
 .debug_line    0x0000000000013d7b      0x17f /usr/local/xenon/xenon/lib/32/libc.a(lib_a-fstatr.o)
 .debug_line    0x0000000000013efa      0x1ac /usr/local/xenon/xenon/lib/32/libc.a(lib_a-ftell.o)
 .debug_line    0x00000000000140a6      0x299 /usr/local/xenon/xenon/lib/32/libc.a(lib_a-fvwrite.o)
 .debug_line    0x000000000001433f      0x18c /usr/local/xenon/xenon/lib/32/libc.a(lib_a-fwalk.o)
 .debug_line    0x00000000000144cb      0x1a7 /usr/local/xenon/xenon/lib/32/libc.a(lib_a-fwrite.o)
 .debug_line    0x0000000000014672       0xfe /usr/local/xenon/xenon/lib/32/libc.a(lib_a-impure.o)
 .debug_line    0x0000000000014770      0x1ec /usr/local/xenon/xenon/lib/32/libc.a(lib_a-makebuf.o)
 .debug_line    0x000000000001495c      0x163 /usr/local/xenon/xenon/lib/32/libc.a(lib_a-malign.o)
 .debug_line    0x0000000000014abf      0x18b /usr/local/xenon/xenon/lib/32/libc.a(lib_a-malignr.o)
 .debug_line    0x0000000000014c4a      0x165 /usr/local/xenon/xenon/lib/32/libc.a(lib_a-malloc.o)
 .debug_line    0x0000000000014daf      0x35c /usr/local/xenon/xenon/lib/32/libc.a(lib_a-mallocr.o)
 .debug_line    0x000000000001510b      0x148 /usr/local/xenon/xenon/lib/32/libc.a(lib_a-memchr.o)
 .debug_line    0x0000000000015253      0x139 /usr/local/xenon/xenon/lib/32/libc.a(lib_a-memcmp.o)
 .debug_line    0x000000000001538c      0x181 /usr/local/xenon/xenon/lib/32/libc.a(lib_a-memcpy.o)
 .debug_line    0x000000000001550d      0x182 /usr/local/xenon/xenon/lib/32/libc.a(lib_a-memmove.o)
 .debug_line    0x000000000001568f      0x183 /usr/local/xenon/xenon/lib/32/libc.a(lib_a-memset.o)
 .debug_line    0x0000000000015812      0x110 /usr/local/xenon/xenon/lib/32/libc.a(lib_a-mlock.o)
 .debug_line    0x0000000000015922      0x16b /usr/local/xenon/xenon/lib/32/libc.a(lib_a-openr.o)
 .debug_line    0x0000000000015a8d      0x18e /usr/local/xenon/xenon/lib/32/libc.a(lib_a-printf.o)
 .debug_line    0x0000000000015c1b      0x164 /usr/local/xenon/xenon/lib/32/libc.a(lib_a-putchar.o)
 .debug_line    0x0000000000015d7f      0x201 /usr/local/xenon/xenon/lib/32/libc.a(lib_a-putc.o)
 .debug_line    0x0000000000015f80      0x18d /usr/local/xenon/xenon/lib/32/libc.a(lib_a-puts.o)
 .debug_line    0x000000000001610d      0x16a /usr/local/xenon/xenon/lib/32/libc.a(lib_a-rand.o)
 .debug_line    0x0000000000016277      0x164 /usr/local/xenon/xenon/lib/32/libc.a(lib_a-realloc.o)
 .debug_line    0x00000000000163db      0x283 /usr/local/xenon/xenon/lib/32/libc.a(lib_a-reallocr.o)
 .debug_line    0x000000000001665e      0x157 /usr/local/xenon/xenon/lib/32/libc.a(lib_a-reent.o)
 .debug_line    0x00000000000167b5      0x1ec /usr/local/xenon/xenon/lib/32/libc.a(lib_a-refill.o)
 .debug_line    0x00000000000169a1      0x169 /usr/local/xenon/xenon/lib/32/libc.a(lib_a-sbrkr.o)
 .debug_line    0x0000000000016b0a      0x206 /usr/local/xenon/xenon/lib/32/libc.a(lib_a-signal.o)
 .debug_line    0x0000000000016d10      0x170 /usr/local/xenon/xenon/lib/32/libc.a(lib_a-signalr.o)
 .debug_line    0x0000000000016e80      0x236 /usr/local/xenon/xenon/lib/32/libc.a(lib_a-snprintf.o)
 .debug_line    0x00000000000170b6      0x1b8 /usr/local/xenon/xenon/lib/32/libc.a(lib_a-sprintf.o)
 .debug_line    0x000000000001726e      0x18e /usr/local/xenon/xenon/lib/32/libc.a(lib_a-stdio.o)
 .debug_line    0x00000000000173fc      0x110 /usr/local/xenon/xenon/lib/32/libc.a(lib_a-strcasecmp.o)
 .debug_line    0x000000000001750c       0xf6 /usr/local/xenon/xenon/lib/32/libc.a(lib_a-strcat.o)
 .debug_line    0x0000000000017602      0x131 /usr/local/xenon/xenon/lib/32/libc.a(lib_a-strchr.o)
 .debug_line    0x0000000000017733      0x107 /usr/local/xenon/xenon/lib/32/libc.a(lib_a-strcmp.o)
 .debug_line    0x000000000001783a       0xe3 /usr/local/xenon/xenon/lib/32/libc.a(lib_a-strcpy.o)
 .debug_line    0x000000000001791d      0x113 /usr/local/xenon/xenon/lib/32/libc.a(lib_a-strlcpy.o)
 .debug_line    0x0000000000017a30      0x12c /usr/local/xenon/xenon/lib/32/libc.a(lib_a-strlen.o)
 .debug_line    0x0000000000017b5c      0x165 /usr/local/xenon/xenon/lib/32/libc.a(lib_a-strncasecmp.o)
 .debug_line    0x0000000000017cc1      0x1ab /usr/local/xenon/xenon/lib/32/libc.a(lib_a-strncmp.o)
 .debug_line    0x0000000000017e6c      0x148 /usr/local/xenon/xenon/lib/32/libc.a(lib_a-strncpy.o)
 .debug_line    0x0000000000017fb4       0xdb /usr/local/xenon/xenon/lib/32/libc.a(lib_a-strrchr.o)
 .debug_line    0x000000000001808f      0x6a7 /usr/local/xenon/xenon/lib/32/libc.a(lib_a-strtod.o)
 .debug_line    0x0000000000018736      0x110 /usr/local/xenon/xenon/lib/32/libc.a(lib_a-strtok_r.o)
 .debug_line    0x0000000000018846      0x20e /usr/local/xenon/xenon/lib/32/libc.a(lib_a-strtol.o)
 .debug_line    0x0000000000018a54      0xbec /usr/local/xenon/xenon/lib/32/libc.a(lib_a-svfprintf.o)
 .debug_line    0x0000000000019640      0x8b4 /usr/local/xenon/xenon/lib/32/libc.a(lib_a-vfiprintf.o)
 .debug_line    0x0000000000019ef4      0xbd9 /usr/local/xenon/xenon/lib/32/libc.a(lib_a-vfprintf.o)
 .debug_line    0x000000000001aacd      0x174 /usr/local/xenon/xenon/lib/32/libc.a(lib_a-vprintf.o)
 .debug_line    0x000000000001ac41      0x184 /usr/local/xenon/xenon/lib/32/libc.a(lib_a-vsprintf.o)
 .debug_line    0x000000000001adc5      0x1f1 /usr/local/xenon/xenon/lib/32/libc.a(lib_a-wbuf.o)
 .debug_line    0x000000000001afb6      0x16c /usr/local/xenon/xenon/lib/32/libc.a(lib_a-writer.o)
 .debug_line    0x000000000001b122      0x1bd /usr/local/xenon/xenon/lib/32/libc.a(lib_a-wsetup.o)
 .debug_line    0x000000000001b2df      0x14c /usr/local/xenon/xenon/lib/32/libc.a(lib_a-__atexit.o)
 .debug_line    0x000000000001b42b      0x18b /usr/local/xenon/xenon/lib/32/libc.a(lib_a-__call_atexit.o)
 .debug_line    0x000000000001b5b6      0x16a /usr/local/xenon/xenon/lib/32/libc.a(lib_a-closer.o)
 .debug_line    0x000000000001b720      0x7d9 /usr/local/xenon/xenon/lib/32/libc.a(lib_a-dtoa.o)
 .debug_line    0x000000000001bef9      0x13a /usr/local/xenon/xenon/lib/32/libc.a(lib_a-flags.o)
 .debug_line    0x000000000001c033      0x3a5 /usr/local/xenon/xenon/lib/32/libc.a(lib_a-gdtoa-gethex.o)
 .debug_line    0x000000000001c3d8      0x192 /usr/local/xenon/xenon/lib/32/libc.a(lib_a-gdtoa-hexnan.o)
 .debug_line    0x000000000001c56a      0x16b /usr/local/xenon/xenon/lib/32/libc.a(lib_a-isattyr.o)
 .debug_line    0x000000000001c6d5      0x190 /usr/local/xenon/xenon/lib/32/libc.a(lib_a-locale.o)
 .debug_line    0x000000000001c865      0x16c /usr/local/xenon/xenon/lib/32/libc.a(lib_a-lseekr.o)
 .debug_line    0x000000000001c9d1      0x755 /usr/local/xenon/xenon/lib/32/libc.a(lib_a-mprec.o)
 .debug_line    0x000000000001d126      0x16b /usr/local/xenon/xenon/lib/32/libc.a(lib_a-readr.o)
 .debug_line    0x000000000001d291       0xbb /usr/local/xenon/xenon/lib/32/libc.a(lib_a-sf_nan.o)
 .debug_line    0x000000000001d34c      0x131 /usr/local/xenon/xenon/lib/32/libc.a(lib_a-s_isinfd.o)
 .debug_line    0x000000000001d47d      0x146 /usr/local/xenon/xenon/lib/32/libc.a(lib_a-callocr.o)
 .debug_line    0x000000000001d5c3       0xe7 /usr/local/xenon/lib/gcc/xenon/4.6.0/32/libgcc.a(_udivdi3.o)
 .debug_line    0x000000000001d6aa       0xed /usr/local/xenon/lib/gcc/xenon/4.6.0/32/libgcc.a(_umoddi3.o)

.debug_str      0x0000000000000000    0x1449e
 .debug_str     0x0000000000000000       0x81 /usr/local/xenon/lib/gcc/xenon/4.6.0/../../../../xenon/lib/../lib/crt1.o
 .debug_str     0x0000000000000081     0x124a main.o
                                       0x147b (size before relaxing)
 .debug_str     0x00000000000012cb       0x7e Tank.o
                                        0x623 (size before relaxing)
 .debug_str     0x0000000000001349       0x2b Tools.o
                                        0x15a (size before relaxing)
 .debug_str     0x0000000000001374      0x148 Console.o
                                        0xcdf (size before relaxing)
 .debug_str     0x00000000000014bc      0x200 Draw.o
                                        0x73e (size before relaxing)
 .debug_str     0x00000000000016bc      0x16e Font.o
                                        0xaef (size before relaxing)
 .debug_str     0x000000000000182a      0x9be Utils.o
                                       0x106c (size before relaxing)
 .debug_str     0x00000000000021e8       0x26 zlx.o
                                        0x509 (size before relaxing)
 .debug_str     0x000000000000220e      0x55d /usr/local/xenon/usr/lib/libxenon.a(ata.o)
                                        0x6ac (size before relaxing)
 .debug_str     0x000000000000276b       0x44 /usr/local/xenon/usr/lib/libxenon.a(input.o)
                                        0x105 (size before relaxing)
 .debug_str     0x00000000000027af      0x2b5 /usr/local/xenon/usr/lib/libxenon.a(newlib.o)
                                        0x45f (size before relaxing)
 .debug_str     0x0000000000002a64       0x21 /usr/local/xenon/usr/lib/libxenon.a(vm.o)
                                         0xe8 (size before relaxing)
 .debug_str     0x0000000000002a85       0x3d /usr/local/xenon/usr/lib/libxenon.a(time.o)
                                        0x10f (size before relaxing)
 .debug_str     0x0000000000002ac2      0x501 /usr/local/xenon/usr/lib/libxenon.a(usbmain.o)
                                        0x604 (size before relaxing)
 .debug_str     0x0000000000002fc3      0xb0b /usr/local/xenon/usr/lib/libxenon.a(tinyehci.o)
                                        0xede (size before relaxing)
 .debug_str     0x0000000000003ace      0x18d /usr/local/xenon/usr/lib/libxenon.a(xenon_smc.o)
                                        0x280 (size before relaxing)
 .debug_str     0x0000000000003c5b       0x38 /usr/local/xenon/usr/lib/libxenon.a(xenon_uart.o)
                                        0x106 (size before relaxing)
 .debug_str     0x0000000000003c93      0x1ab /usr/local/xenon/usr/lib/libxenon.a(edram.o)
                                        0x68e (size before relaxing)
 .debug_str     0x0000000000003e3e      0xbe3 /usr/local/xenon/usr/lib/libxenon.a(xe.o)
                                       0x15ad (size before relaxing)
 .debug_str     0x0000000000004a21      0x2d1 /usr/local/xenon/usr/lib/libxenon.a(xenos.o)
                                        0x3ee (size before relaxing)
 .debug_str     0x0000000000004cf2       0x9b /usr/local/xenon/usr/lib/libxenon.a(diskio.o)
                                        0x39b (size before relaxing)
 .debug_str     0x0000000000004d8d      0x197 /usr/local/xenon/usr/lib/libxenon.a(fat.o)
                                        0x4f2 (size before relaxing)
 .debug_str     0x0000000000004f24      0x6b4 /usr/local/xenon/usr/lib/libxenon.a(fat_rb.o)
                                        0x910 (size before relaxing)
 .debug_str     0x00000000000055d8      0x13e /usr/local/xenon/usr/lib/libxenon.a(file_rb.o)
                                        0x3a2 (size before relaxing)
 .debug_str     0x0000000000005716       0x78 /usr/local/xenon/usr/lib/libxenon.a(dir_rb.o)
                                        0x2ae (size before relaxing)
 .debug_str     0x000000000000578e      0x344 /usr/local/xenon/usr/lib/libxenon.a(iso9660.o)
                                        0x70e (size before relaxing)
 .debug_str     0x0000000000005ad2      0x13b /usr/local/xenon/usr/lib/libxenon.a(lib_malloc.o)
                                        0x2ac (size before relaxing)
 .debug_str     0x0000000000005c0d       0x28 /usr/local/xenon/usr/lib/libxenon.a(io.o)
                                        0x103 (size before relaxing)
 .debug_str     0x0000000000005c35      0x774 /usr/local/xenon/usr/lib/libxenon.a(ohci.o)
                                        0xe9e (size before relaxing)
 .debug_str     0x00000000000063a9      0x378 /usr/local/xenon/usr/lib/libxenon.a(usbd.o)
                                        0xa96 (size before relaxing)
 .debug_str     0x0000000000006721       0xb8 /usr/local/xenon/usr/lib/libxenon.a(usbdevs.o)
                                        0x6bc (size before relaxing)
 .debug_str     0x00000000000067d9      0x172 /usr/local/xenon/usr/lib/libxenon.a(usbhid.o)
                                        0x889 (size before relaxing)
 .debug_str     0x000000000000694b      0x25e /usr/local/xenon/usr/lib/libxenon.a(usbhub.o)
                                        0xb3b (size before relaxing)
 .debug_str     0x0000000000006ba9      0x115 /usr/local/xenon/usr/lib/libxenon.a(usb_os.o)
                                        0x205 (size before relaxing)
 .debug_str     0x0000000000006cbe       0x7a /usr/local/xenon/usr/lib/libxenon.a(unicode_rb.o)
                                        0x155 (size before relaxing)
 .debug_str     0x0000000000006d38       0x59 /usr/local/xenon/usr/lib/libxenon.a(xenon_gpio.o)
                                        0x126 (size before relaxing)
 .debug_str     0x0000000000006d91      0x2b0 /usr/local/xenon/usr/lib/libxenon.a(xenon_config.o)
                                        0x3c0 (size before relaxing)
 .debug_str     0x0000000000007041       0x1c /usr/local/xenon/usr/lib/libxenon.a(ucode.o)
                                        0x10a (size before relaxing)
 .debug_str     0x000000000000705d       0x9d /usr/local/xenon/usr/lib/libxenon.a(disk_rb.o)
                                        0x21d (size before relaxing)
 .debug_str     0x00000000000070fa       0x5e /usr/local/xenon/usr/lib/libxenon.a(lib_queue.o)
                                        0x144 (size before relaxing)
 .debug_str     0x0000000000007158       0xa8 /usr/local/xenon/usr/lib/libxenon.a(usbctrl.o)
                                        0x866 (size before relaxing)
 .debug_str     0x0000000000007200      0x146 /usr/local/xenon/usr/lib/libxenon.a(usbdebug.o)
                                        0x8f4 (size before relaxing)
 .debug_str     0x0000000000007346      0x165 /usr/local/xenon/usr/lib/libxenon.a(xenon_sfcx.o)
                                        0x349 (size before relaxing)
 .debug_str     0x00000000000074ab       0x9a /usr/local/xenon/lib/gcc/xenon/4.6.0/../../../../xenon/lib/../lib/libstdc++.a(new_opv.o)
                                         0xbc (size before relaxing)
 .debug_str     0x0000000000007545      0x7b5 /usr/local/xenon/lib/gcc/xenon/4.6.0/../../../../xenon/lib/../lib/libstdc++.a(eh_personality.o)
                                        0xa43 (size before relaxing)
 .debug_str     0x0000000000007cfa      0x32f /usr/local/xenon/lib/gcc/xenon/4.6.0/../../../../xenon/lib/../lib/libstdc++.a(eh_alloc.o)
                                        0x8a4 (size before relaxing)
 .debug_str     0x0000000000008029       0x60 /usr/local/xenon/lib/gcc/xenon/4.6.0/../../../../xenon/lib/../lib/libstdc++.a(bad_alloc.o)
                                         0xe4 (size before relaxing)
 .debug_str     0x0000000000008089       0x51 /usr/local/xenon/lib/gcc/xenon/4.6.0/../../../../xenon/lib/../lib/libstdc++.a(del_op.o)
                                        0x1d6 (size before relaxing)
 .debug_str     0x00000000000080da       0xcf /usr/local/xenon/lib/gcc/xenon/4.6.0/../../../../xenon/lib/../lib/libstdc++.a(eh_catch.o)
                                        0x5a8 (size before relaxing)
 .debug_str     0x00000000000081a9       0x5b /usr/local/xenon/lib/gcc/xenon/4.6.0/../../../../xenon/lib/../lib/libstdc++.a(new_op.o)
                                        0x20d (size before relaxing)
 .debug_str     0x0000000000008204      0x188 /usr/local/xenon/lib/gcc/xenon/4.6.0/../../../../xenon/lib/../lib/libstdc++.a(eh_terminate.o)
                                        0x3b5 (size before relaxing)
 .debug_str     0x000000000000838c      0x178 /usr/local/xenon/lib/gcc/xenon/4.6.0/../../../../xenon/lib/../lib/libstdc++.a(eh_exception.o)
                                        0x24a (size before relaxing)
 .debug_str     0x0000000000008504       0x50 /usr/local/xenon/lib/gcc/xenon/4.6.0/../../../../xenon/lib/../lib/libstdc++.a(eh_call.o)
                                        0x4d9 (size before relaxing)
 .debug_str     0x0000000000008554       0x67 /usr/local/xenon/lib/gcc/xenon/4.6.0/../../../../xenon/lib/../lib/libstdc++.a(eh_globals.o)
                                        0x4ee (size before relaxing)
 .debug_str     0x00000000000085bb      0x536 /usr/local/xenon/lib/gcc/xenon/4.6.0/../../../../xenon/lib/../lib/libstdc++.a(class_type_info.o)
                                        0x608 (size before relaxing)
 .debug_str     0x0000000000008af1       0x43 /usr/local/xenon/lib/gcc/xenon/4.6.0/../../../../xenon/lib/../lib/libstdc++.a(eh_term_handler.o)
                                        0x194 (size before relaxing)
 .debug_str     0x0000000000008b34      0x1f9 /usr/local/xenon/lib/gcc/xenon/4.6.0/../../../../xenon/lib/../lib/libstdc++.a(si_class_type_info.o)
                                        0x596 (size before relaxing)
 .debug_str     0x0000000000008d2d       0x43 /usr/local/xenon/lib/gcc/xenon/4.6.0/../../../../xenon/lib/../lib/libstdc++.a(eh_unex_handler.o)
                                        0x197 (size before relaxing)
 .debug_str     0x0000000000008d70      0x19b /usr/local/xenon/lib/gcc/xenon/4.6.0/../../../../xenon/lib/../lib/libstdc++.a(tinfo.o)
                                        0x335 (size before relaxing)
 .debug_str     0x0000000000008f0b       0xff /usr/local/xenon/lib/gcc/xenon/4.6.0/../../../../xenon/lib/../lib/libstdc++.a(eh_throw.o)
                                        0x543 (size before relaxing)
 .debug_str     0x000000000000900a       0x4b /usr/local/xenon/lib/gcc/xenon/4.6.0/../../../../xenon/lib/../lib/libstdc++.a(pure.o)
                                        0x191 (size before relaxing)
 .debug_str     0x0000000000009055      0x12d /usr/local/xenon/lib/gcc/xenon/4.6.0/../../../../xenon/lib/../lib/libstdc++.a(vterminate.o)
                                        0x6f5 (size before relaxing)
 .debug_str     0x0000000000009182       0x77 /usr/local/xenon/lib/gcc/xenon/4.6.0/../../../../xenon/lib/../lib/libstdc++.a(new_handler.o)
                                        0x10f (size before relaxing)
 .debug_str     0x00000000000091f9     0x12cb /usr/local/xenon/lib/gcc/xenon/4.6.0/../../../../xenon/lib/../lib/libstdc++.a(cp-demangle.o)
                                       0x14ef (size before relaxing)
 .debug_str     0x000000000000a4c4       0x58 /usr/local/xenon/lib/gcc/xenon/4.6.0/../../../../xenon/lib/../lib/libstdc++.a(eh_type.o)
                                        0x488 (size before relaxing)
 .debug_str     0x000000000000a51c       0xc5 /usr/local/xenon/xenon/lib/32/libm.a(lib_a-s_floor.o)
                                        0x179 (size before relaxing)
 .debug_str     0x000000000000a5e1       0x51 /usr/local/xenon/xenon/lib/32/libm.a(lib_a-s_frexp.o)
                                        0x184 (size before relaxing)
 .debug_str     0x000000000000a632       0x8b /usr/local/xenon/xenon/lib/32/libm.a(lib_a-s_modf.o)
                                        0x185 (size before relaxing)
 .debug_str     0x000000000000a6bd       0x58 /usr/local/xenon/xenon/lib/32/libm.a(lib_a-s_trunc.o)
                                        0x189 (size before relaxing)
 .debug_str     0x000000000000a715       0x9e /usr/local/xenon/xenon/lib/32/libm.a(lib_a-w_pow.o)
                                        0x1aa (size before relaxing)
 .debug_str     0x000000000000a7b3       0x94 /usr/local/xenon/xenon/lib/32/libm.a(lib_a-e_pow.o)
                                        0x1d6 (size before relaxing)
 .debug_str     0x000000000000a847       0x49 /usr/local/xenon/xenon/lib/32/libm.a(lib_a-e_sqrt.o)
                                        0x186 (size before relaxing)
 .debug_str     0x000000000000a890       0x3f /usr/local/xenon/xenon/lib/32/libm.a(lib_a-s_fabs.o)
                                        0x16d (size before relaxing)
 .debug_str     0x000000000000a8cf       0x3e /usr/local/xenon/xenon/lib/32/libm.a(lib_a-s_finite.o)
                                        0x175 (size before relaxing)
 .debug_str     0x000000000000a90d       0x47 /usr/local/xenon/xenon/lib/32/libm.a(lib_a-s_isnand.o)
                                        0x177 (size before relaxing)
 .debug_str     0x000000000000a954       0x3f /usr/local/xenon/xenon/lib/32/libm.a(lib_a-s_lib_ver.o)
                                        0x18d (size before relaxing)
 .debug_str     0x000000000000a993       0x47 /usr/local/xenon/xenon/lib/32/libm.a(lib_a-s_matherr.o)
                                        0x15f (size before relaxing)
 .debug_str     0x000000000000a9da       0x3b /usr/local/xenon/xenon/lib/32/libm.a(lib_a-s_nan.o)
                                        0x168 (size before relaxing)
 .debug_str     0x000000000000aa15       0x42 /usr/local/xenon/xenon/lib/32/libm.a(lib_a-s_rint.o)
                                        0x181 (size before relaxing)
 .debug_str     0x000000000000aa57       0x4c /usr/local/xenon/xenon/lib/32/libm.a(lib_a-s_scalbn.o)
                                        0x196 (size before relaxing)
 .debug_str     0x000000000000aaa3       0x49 /usr/local/xenon/xenon/lib/32/libm.a(lib_a-s_copysign.o)
                                        0x174 (size before relaxing)
 .debug_str     0x000000000000aaec     0x715b /usr/local/xenon/lib/gcc/xenon/4.6.0/32/libgcc.a(unwind-dw2.o)
                                       0x7562 (size before relaxing)
 .debug_str     0x0000000000011c47      0x411 /usr/local/xenon/lib/gcc/xenon/4.6.0/32/libgcc.a(unwind-dw2-fde-glibc.o)
                                       0x64c0 (size before relaxing)
 .debug_str     0x0000000000012058       0x86 /usr/local/xenon/xenon/lib/32/libc.a(lib_a-abort.o)
                                        0x11b (size before relaxing)
 .debug_str     0x00000000000120de       0x5e /usr/local/xenon/xenon/lib/32/libc.a(lib_a-assert.o)
                                        0x502 (size before relaxing)
 .debug_str     0x000000000001213c       0x3a /usr/local/xenon/xenon/lib/32/libc.a(lib_a-atof.o)
                                        0x120 (size before relaxing)
 .debug_str     0x0000000000012176       0x42 /usr/local/xenon/xenon/lib/32/libc.a(lib_a-atoi.o)
                                        0x4d0 (size before relaxing)
 .debug_str     0x00000000000121b8       0x93 /usr/local/xenon/xenon/lib/32/libc.a(lib_a-ctype_.o)
                                         0xbf (size before relaxing)
 .debug_str     0x000000000001224b       0x7d /usr/local/xenon/xenon/lib/32/libc.a(lib_a-cxa_atexit.o)
                                        0x157 (size before relaxing)
 .debug_str     0x00000000000122c8       0x86 /usr/local/xenon/xenon/lib/32/libc.a(lib_a-errno.o)
                                        0x4d6 (size before relaxing)
 .debug_str     0x000000000001234e       0x4d /usr/local/xenon/xenon/lib/32/libc.a(lib_a-exit.o)
                                        0x4e0 (size before relaxing)
 .debug_str     0x000000000001239b       0x89 /usr/local/xenon/xenon/lib/32/libc.a(lib_a-fclose.o)
                                        0x4ea (size before relaxing)
 .debug_str     0x0000000000012424       0x4c /usr/local/xenon/xenon/lib/32/libc.a(lib_a-fflush.o)
                                        0x506 (size before relaxing)
 .debug_str     0x0000000000012470       0xfd /usr/local/xenon/xenon/lib/32/libc.a(lib_a-findfp.o)
                                        0x5c8 (size before relaxing)
 .debug_str     0x000000000001256d       0x49 /usr/local/xenon/xenon/lib/32/libc.a(lib_a-fiprintf.o)
                                        0x539 (size before relaxing)
 .debug_str     0x00000000000125b6       0x43 /usr/local/xenon/xenon/lib/32/libc.a(lib_a-fopen.o)
                                        0x4f9 (size before relaxing)
 .debug_str     0x00000000000125f9       0x47 /usr/local/xenon/xenon/lib/32/libc.a(lib_a-fprintf.o)
                                        0x536 (size before relaxing)
 .debug_str     0x0000000000012640       0x49 /usr/local/xenon/xenon/lib/32/libc.a(lib_a-fputc.o)
                                        0x4ee (size before relaxing)
 .debug_str     0x0000000000012689       0x85 /usr/local/xenon/xenon/lib/32/libc.a(lib_a-fputs.o)
                                        0x52c (size before relaxing)
 .debug_str     0x000000000001270e       0x65 /usr/local/xenon/xenon/lib/32/libc.a(lib_a-fread.o)
                                        0x522 (size before relaxing)
 .debug_str     0x0000000000012773      0x156 /usr/local/xenon/xenon/lib/32/libc.a(lib_a-freer.o)
                                        0x617 (size before relaxing)
 .debug_str     0x00000000000128c9       0x57 /usr/local/xenon/xenon/lib/32/libc.a(lib_a-fseek.o)
                                        0x606 (size before relaxing)
 .debug_str     0x0000000000012920       0x8e /usr/local/xenon/xenon/lib/32/libc.a(lib_a-fstatr.o)
                                        0x5c5 (size before relaxing)
 .debug_str     0x00000000000129ae       0x43 /usr/local/xenon/xenon/lib/32/libc.a(lib_a-ftell.o)
                                        0x4e2 (size before relaxing)
 .debug_str     0x00000000000129f1       0x67 /usr/local/xenon/xenon/lib/32/libc.a(lib_a-fvwrite.o)
                                        0x537 (size before relaxing)
 .debug_str     0x0000000000012a58       0x5f /usr/local/xenon/xenon/lib/32/libc.a(lib_a-fwalk.o)
                                        0x509 (size before relaxing)
 .debug_str     0x0000000000012ab7       0x4c /usr/local/xenon/xenon/lib/32/libc.a(lib_a-fwrite.o)
                                        0x533 (size before relaxing)
 .debug_str     0x0000000000012b03       0x47 /usr/local/xenon/xenon/lib/32/libc.a(lib_a-impure.o)
                                        0x4ee (size before relaxing)
 .debug_str     0x0000000000012b4a       0x54 /usr/local/xenon/xenon/lib/32/libc.a(lib_a-makebuf.o)
                                        0x5da (size before relaxing)
 .debug_str     0x0000000000012b9e       0x4c /usr/local/xenon/xenon/lib/32/libc.a(lib_a-malign.o)
                                        0x4ee (size before relaxing)
 .debug_str     0x0000000000012bea       0x3d /usr/local/xenon/xenon/lib/32/libc.a(lib_a-malignr.o)
                                        0x548 (size before relaxing)
 .debug_str     0x0000000000012c27       0x41 /usr/local/xenon/xenon/lib/32/libc.a(lib_a-malloc.o)
                                        0x4f0 (size before relaxing)
 .debug_str     0x0000000000012c68       0xca /usr/local/xenon/xenon/lib/32/libc.a(lib_a-mallocr.o)
                                        0x6c5 (size before relaxing)
 .debug_str     0x0000000000012d32       0x96 /usr/local/xenon/xenon/lib/32/libc.a(lib_a-memchr.o)
                                        0x13e (size before relaxing)
 .debug_str     0x0000000000012dc8       0x3c /usr/local/xenon/xenon/lib/32/libc.a(lib_a-memcmp.o)
                                        0x124 (size before relaxing)
 .debug_str     0x0000000000012e04       0x6a /usr/local/xenon/xenon/lib/32/libc.a(lib_a-memcpy.o)
                                        0x14b (size before relaxing)
 .debug_str     0x0000000000012e6e       0x4e /usr/local/xenon/xenon/lib/32/libc.a(lib_a-memmove.o)
                                        0x157 (size before relaxing)
 .debug_str     0x0000000000012ebc       0x50 /usr/local/xenon/xenon/lib/32/libc.a(lib_a-memset.o)
                                        0x138 (size before relaxing)
 .debug_str     0x0000000000012f0c       0x6e /usr/local/xenon/xenon/lib/32/libc.a(lib_a-mlock.o)
                                        0x4f7 (size before relaxing)
 .debug_str     0x0000000000012f7a       0x42 /usr/local/xenon/xenon/lib/32/libc.a(lib_a-openr.o)
                                        0x4e0 (size before relaxing)
 .debug_str     0x0000000000012fbc       0x45 /usr/local/xenon/xenon/lib/32/libc.a(lib_a-printf.o)
                                        0x52e (size before relaxing)
 .debug_str     0x0000000000013001       0x4f /usr/local/xenon/xenon/lib/32/libc.a(lib_a-putchar.o)
                                        0x4e3 (size before relaxing)
 .debug_str     0x0000000000013050       0x41 /usr/local/xenon/xenon/lib/32/libc.a(lib_a-putc.o)
                                        0x4e6 (size before relaxing)
 .debug_str     0x0000000000013091       0x41 /usr/local/xenon/xenon/lib/32/libc.a(lib_a-puts.o)
                                        0x51d (size before relaxing)
 .debug_str     0x00000000000130d2       0x3a /usr/local/xenon/xenon/lib/32/libc.a(lib_a-rand.o)
                                        0x4df (size before relaxing)
 .debug_str     0x000000000001310c       0x45 /usr/local/xenon/xenon/lib/32/libc.a(lib_a-realloc.o)
                                        0x4e8 (size before relaxing)
 .debug_str     0x0000000000013151       0x49 /usr/local/xenon/xenon/lib/32/libc.a(lib_a-reallocr.o)
                                        0x597 (size before relaxing)
 .debug_str     0x000000000001319a       0x74 /usr/local/xenon/xenon/lib/32/libc.a(lib_a-reent.o)
                                        0x513 (size before relaxing)
 .debug_str     0x000000000001320e       0x4e /usr/local/xenon/xenon/lib/32/libc.a(lib_a-refill.o)
                                        0x4ee (size before relaxing)
 .debug_str     0x000000000001325c       0x42 /usr/local/xenon/xenon/lib/32/libc.a(lib_a-sbrkr.o)
                                        0x4e4 (size before relaxing)
 .debug_str     0x000000000001329e       0xdb /usr/local/xenon/xenon/lib/32/libc.a(lib_a-signal.o)
                                        0x541 (size before relaxing)
 .debug_str     0x0000000000013379       0x4e /usr/local/xenon/xenon/lib/32/libc.a(lib_a-signalr.o)
                                        0x4e1 (size before relaxing)
 .debug_str     0x00000000000133c7       0x52 /usr/local/xenon/xenon/lib/32/libc.a(lib_a-snprintf.o)
                                        0x545 (size before relaxing)
 .debug_str     0x0000000000013419       0x47 /usr/local/xenon/xenon/lib/32/libc.a(lib_a-sprintf.o)
                                        0x536 (size before relaxing)
 .debug_str     0x0000000000013460       0x5c /usr/local/xenon/xenon/lib/32/libc.a(lib_a-stdio.o)
                                        0x505 (size before relaxing)
 .debug_str     0x00000000000134bc       0x4b /usr/local/xenon/xenon/lib/32/libc.a(lib_a-strcasecmp.o)
                                        0x133 (size before relaxing)
 .debug_str     0x0000000000013507       0x4e /usr/local/xenon/xenon/lib/32/libc.a(lib_a-strcat.o)
                                        0x128 (size before relaxing)
 .debug_str     0x0000000000013555       0x43 /usr/local/xenon/xenon/lib/32/libc.a(lib_a-strchr.o)
                                        0x12f (size before relaxing)
 .debug_str     0x0000000000013598       0x43 /usr/local/xenon/xenon/lib/32/libc.a(lib_a-strcmp.o)
                                        0x11d (size before relaxing)
 .debug_str     0x00000000000135db       0x43 /usr/local/xenon/xenon/lib/32/libc.a(lib_a-strcpy.o)
                                        0x13f (size before relaxing)
 .debug_str     0x000000000001361e       0x45 /usr/local/xenon/xenon/lib/32/libc.a(lib_a-strlcpy.o)
                                        0x126 (size before relaxing)
 .debug_str     0x0000000000013663       0x43 /usr/local/xenon/xenon/lib/32/libc.a(lib_a-strlen.o)
                                        0x137 (size before relaxing)
 .debug_str     0x00000000000136a6       0x4d /usr/local/xenon/xenon/lib/32/libc.a(lib_a-strncasecmp.o)
                                        0x13c (size before relaxing)
 .debug_str     0x00000000000136f3       0x45 /usr/local/xenon/xenon/lib/32/libc.a(lib_a-strncmp.o)
                                        0x126 (size before relaxing)
 .debug_str     0x0000000000013738       0x45 /usr/local/xenon/xenon/lib/32/libc.a(lib_a-strncpy.o)
                                        0x14e (size before relaxing)
 .debug_str     0x000000000001377d       0x45 /usr/local/xenon/xenon/lib/32/libc.a(lib_a-strrchr.o)
                                        0x124 (size before relaxing)
 .debug_str     0x00000000000137c2      0x1db /usr/local/xenon/xenon/lib/32/libc.a(lib_a-strtod.o)
                                        0x6ca (size before relaxing)
 .debug_str     0x000000000001399d       0x68 /usr/local/xenon/xenon/lib/32/libc.a(lib_a-strtok_r.o)
                                        0x156 (size before relaxing)
 .debug_str     0x0000000000013a05       0x54 /usr/local/xenon/xenon/lib/32/libc.a(lib_a-strtol.o)
                                        0x514 (size before relaxing)
 .debug_str     0x0000000000013a59      0x130 /usr/local/xenon/xenon/lib/32/libc.a(lib_a-svfprintf.o)
                                        0x6ce (size before relaxing)
 .debug_str     0x0000000000013b89       0x27 /usr/local/xenon/xenon/lib/32/libc.a(lib_a-vfiprintf.o)
                                        0x65e (size before relaxing)
 .debug_str     0x0000000000013bb0       0x15 /usr/local/xenon/xenon/lib/32/libc.a(lib_a-vfprintf.o)
                                        0x6ef (size before relaxing)
 .debug_str     0x0000000000013bc5       0x4f /usr/local/xenon/xenon/lib/32/libc.a(lib_a-vprintf.o)
                                        0x51a (size before relaxing)
 .debug_str     0x0000000000013c14       0x52 /usr/local/xenon/xenon/lib/32/libc.a(lib_a-vsprintf.o)
                                        0x52f (size before relaxing)
 .debug_str     0x0000000000013c66       0x4b /usr/local/xenon/xenon/lib/32/libc.a(lib_a-wbuf.o)
                                        0x4e4 (size before relaxing)
 .debug_str     0x0000000000013cb1       0x44 /usr/local/xenon/xenon/lib/32/libc.a(lib_a-writer.o)
                                        0x4e2 (size before relaxing)
 .debug_str     0x0000000000013cf5       0x47 /usr/local/xenon/xenon/lib/32/libc.a(lib_a-wsetup.o)
                                        0x4e0 (size before relaxing)
 .debug_str     0x0000000000013d3c       0x52 /usr/local/xenon/xenon/lib/32/libc.a(lib_a-__atexit.o)
                                        0x52d (size before relaxing)
 .debug_str     0x0000000000013d8e       0x5a /usr/local/xenon/xenon/lib/32/libc.a(lib_a-__call_atexit.o)
                                        0x508 (size before relaxing)
 .debug_str     0x0000000000013de8       0x44 /usr/local/xenon/xenon/lib/32/libc.a(lib_a-closer.o)
                                        0x4d2 (size before relaxing)
 .debug_str     0x0000000000013e2c       0xda /usr/local/xenon/xenon/lib/32/libc.a(lib_a-dtoa.o)
                                        0x5d5 (size before relaxing)
 .debug_str     0x0000000000013f06       0x48 /usr/local/xenon/xenon/lib/32/libc.a(lib_a-flags.o)
                                        0x4d5 (size before relaxing)
 .debug_str     0x0000000000013f4e       0xd9 /usr/local/xenon/xenon/lib/32/libc.a(lib_a-gdtoa-gethex.o)
                                        0x694 (size before relaxing)
 .debug_str     0x0000000000014027       0x53 /usr/local/xenon/xenon/lib/32/libc.a(lib_a-gdtoa-hexnan.o)
                                        0x253 (size before relaxing)
 .debug_str     0x000000000001407a       0x46 /usr/local/xenon/xenon/lib/32/libc.a(lib_a-isattyr.o)
                                        0x4d4 (size before relaxing)
 .debug_str     0x00000000000140c0       0xf5 /usr/local/xenon/xenon/lib/32/libc.a(lib_a-locale.o)
                                        0x67d (size before relaxing)
 .debug_str     0x00000000000141b5       0x44 /usr/local/xenon/xenon/lib/32/libc.a(lib_a-lseekr.o)
                                        0x4e0 (size before relaxing)
 .debug_str     0x00000000000141f9       0xf9 /usr/local/xenon/xenon/lib/32/libc.a(lib_a-mprec.o)
                                        0x5e2 (size before relaxing)
 .debug_str     0x00000000000142f2       0x42 /usr/local/xenon/xenon/lib/32/libc.a(lib_a-readr.o)
                                        0x4e0 (size before relaxing)
 .debug_str     0x0000000000014334       0x41 /usr/local/xenon/xenon/lib/32/libc.a(lib_a-sf_nan.o)
                                        0x13b (size before relaxing)
 .debug_str     0x0000000000014375       0x47 /usr/local/xenon/xenon/lib/32/libc.a(lib_a-s_isinfd.o)
                                        0x177 (size before relaxing)
 .debug_str     0x00000000000143bc       0x19 /usr/local/xenon/xenon/lib/32/libc.a(lib_a-callocr.o)
                                        0x516 (size before relaxing)
 .debug_str     0x00000000000143d5       0xbf /usr/local/xenon/lib/gcc/xenon/4.6.0/32/libgcc.a(_udivdi3.o)
                                        0x1a7 (size before relaxing)
 .debug_str     0x0000000000014494        0xa /usr/local/xenon/lib/gcc/xenon/4.6.0/32/libgcc.a(_umoddi3.o)
                                        0x1a7 (size before relaxing)

.comment        0x0000000000000000       0x11
 .comment       0x0000000000000000       0x11 /usr/local/xenon/lib/gcc/xenon/4.6.0/../../../../xenon/lib/../lib/crt1.o
                                         0x12 (size before relaxing)
 .comment       0x0000000000000000       0x12 /usr/local/xenon/lib/gcc/xenon/4.6.0/32/crtbegin.o
 .comment       0x0000000000000000       0x12 main.o
 .comment       0x0000000000000000       0x12 Tank.o
 .comment       0x0000000000000000       0x12 Tools.o
 .comment       0x0000000000000000       0x12 Console.o
 .comment       0x0000000000000000       0x12 Draw.o
 .comment       0x0000000000000000       0x12 Font.o
 .comment       0x0000000000000000       0x12 stdafx.o
 .comment       0x0000000000000000       0x12 Utils.o
 .comment       0x0000000000000000       0x12 zlx.o
 .comment       0x0000000000000000       0x12 /usr/local/xenon/usr/lib/libxenon.a(ata.o)
 .comment       0x0000000000000000       0x12 /usr/local/xenon/usr/lib/libxenon.a(input.o)
 .comment       0x0000000000000000       0x12 /usr/local/xenon/usr/lib/libxenon.a(newlib.o)
 .comment       0x0000000000000000       0x12 /usr/local/xenon/usr/lib/libxenon.a(vm.o)
 .comment       0x0000000000000000       0x12 /usr/local/xenon/usr/lib/libxenon.a(time.o)
 .comment       0x0000000000000000       0x12 /usr/local/xenon/usr/lib/libxenon.a(usbmain.o)
 .comment       0x0000000000000000       0x12 /usr/local/xenon/usr/lib/libxenon.a(tinyehci.o)
 .comment       0x0000000000000000       0x12 /usr/local/xenon/usr/lib/libxenon.a(xenon_smc.o)
 .comment       0x0000000000000000       0x12 /usr/local/xenon/usr/lib/libxenon.a(xenon_uart.o)
 .comment       0x0000000000000000       0x12 /usr/local/xenon/usr/lib/libxenon.a(edram.o)
 .comment       0x0000000000000000       0x12 /usr/local/xenon/usr/lib/libxenon.a(xe.o)
 .comment       0x0000000000000000       0x12 /usr/local/xenon/usr/lib/libxenon.a(xenos.o)
 .comment       0x0000000000000000       0x12 /usr/local/xenon/usr/lib/libxenon.a(diskio.o)
 .comment       0x0000000000000000       0x12 /usr/local/xenon/usr/lib/libxenon.a(fat.o)
 .comment       0x0000000000000000       0x12 /usr/local/xenon/usr/lib/libxenon.a(fat_rb.o)
 .comment       0x0000000000000000       0x12 /usr/local/xenon/usr/lib/libxenon.a(file_rb.o)
 .comment       0x0000000000000000       0x12 /usr/local/xenon/usr/lib/libxenon.a(dir_rb.o)
 .comment       0x0000000000000000       0x12 /usr/local/xenon/usr/lib/libxenon.a(iso9660.o)
 .comment       0x0000000000000000       0x12 /usr/local/xenon/usr/lib/libxenon.a(lib_malloc.o)
 .comment       0x0000000000000000       0x12 /usr/local/xenon/usr/lib/libxenon.a(io.o)
 .comment       0x0000000000000000       0x12 /usr/local/xenon/usr/lib/libxenon.a(ohci.o)
 .comment       0x0000000000000000       0x12 /usr/local/xenon/usr/lib/libxenon.a(usbd.o)
 .comment       0x0000000000000000       0x12 /usr/local/xenon/usr/lib/libxenon.a(usbdevs.o)
 .comment       0x0000000000000000       0x12 /usr/local/xenon/usr/lib/libxenon.a(usbhid.o)
 .comment       0x0000000000000000       0x12 /usr/local/xenon/usr/lib/libxenon.a(usbhub.o)
 .comment       0x0000000000000000       0x12 /usr/local/xenon/usr/lib/libxenon.a(usb_os.o)
 .comment       0x0000000000000000       0x12 /usr/local/xenon/usr/lib/libxenon.a(unicode_rb.o)
 .comment       0x0000000000000000       0x12 /usr/local/xenon/usr/lib/libxenon.a(xenon_gpio.o)
 .comment       0x0000000000000000       0x12 /usr/local/xenon/usr/lib/libxenon.a(xenon_config.o)
 .comment       0x0000000000000000       0x12 /usr/local/xenon/usr/lib/libxenon.a(ucode.o)
 .comment       0x0000000000000000       0x12 /usr/local/xenon/usr/lib/libxenon.a(disk_rb.o)
 .comment       0x0000000000000000       0x12 /usr/local/xenon/usr/lib/libxenon.a(lib_queue.o)
 .comment       0x0000000000000000       0x12 /usr/local/xenon/usr/lib/libxenon.a(usbctrl.o)
 .comment       0x0000000000000000       0x12 /usr/local/xenon/usr/lib/libxenon.a(usbdebug.o)
 .comment       0x0000000000000000       0x12 /usr/local/xenon/usr/lib/libxenon.a(xenon_sfcx.o)
 .comment       0x0000000000000000       0x12 /usr/local/xenon/usr/lib/libpng.a(libpng15_la-png.o)
 .comment       0x0000000000000000       0x12 /usr/local/xenon/usr/lib/libpng.a(libpng15_la-pngerror.o)
 .comment       0x0000000000000000       0x12 /usr/local/xenon/usr/lib/libpng.a(libpng15_la-pngmem.o)
 .comment       0x0000000000000000       0x12 /usr/local/xenon/usr/lib/libpng.a(libpng15_la-pngread.o)
 .comment       0x0000000000000000       0x12 /usr/local/xenon/usr/lib/libpng.a(libpng15_la-pngrio.o)
 .comment       0x0000000000000000       0x12 /usr/local/xenon/usr/lib/libpng.a(libpng15_la-pngrtran.o)
 .comment       0x0000000000000000       0x12 /usr/local/xenon/usr/lib/libpng.a(libpng15_la-pngrutil.o)
 .comment       0x0000000000000000       0x12 /usr/local/xenon/usr/lib/libpng.a(libpng15_la-pngset.o)
 .comment       0x0000000000000000       0x12 /usr/local/xenon/usr/lib/libpng.a(libpng15_la-pngtrans.o)
 .comment       0x0000000000000000       0x12 /usr/local/xenon/usr/lib/libpng.a(libpng15_la-pngget.o)
 .comment       0x0000000000000000       0x12 /usr/local/xenon/usr/lib/libz.a(crc32.o)
 .comment       0x0000000000000000       0x12 /usr/local/xenon/usr/lib/libz.a(inflate.o)
 .comment       0x0000000000000000       0x12 /usr/local/xenon/usr/lib/libz.a(inftrees.o)
 .comment       0x0000000000000000       0x12 /usr/local/xenon/usr/lib/libz.a(zutil.o)
 .comment       0x0000000000000000       0x12 /usr/local/xenon/usr/lib/libz.a(adler32.o)
 .comment       0x0000000000000000       0x12 /usr/local/xenon/usr/lib/libz.a(inffast.o)
 .comment       0x0000000000000000       0x12 /usr/local/xenon/lib/gcc/xenon/4.6.0/../../../../xenon/lib/../lib/libstdc++.a(new_opv.o)
 .comment       0x0000000000000000       0x12 /usr/local/xenon/lib/gcc/xenon/4.6.0/../../../../xenon/lib/../lib/libstdc++.a(eh_personality.o)
 .comment       0x0000000000000000       0x12 /usr/local/xenon/lib/gcc/xenon/4.6.0/../../../../xenon/lib/../lib/libstdc++.a(eh_alloc.o)
 .comment       0x0000000000000000       0x12 /usr/local/xenon/lib/gcc/xenon/4.6.0/../../../../xenon/lib/../lib/libstdc++.a(bad_alloc.o)
 .comment       0x0000000000000000       0x12 /usr/local/xenon/lib/gcc/xenon/4.6.0/../../../../xenon/lib/../lib/libstdc++.a(del_op.o)
 .comment       0x0000000000000000       0x12 /usr/local/xenon/lib/gcc/xenon/4.6.0/../../../../xenon/lib/../lib/libstdc++.a(eh_catch.o)
 .comment       0x0000000000000000       0x12 /usr/local/xenon/lib/gcc/xenon/4.6.0/../../../../xenon/lib/../lib/libstdc++.a(new_op.o)
 .comment       0x0000000000000000       0x12 /usr/local/xenon/lib/gcc/xenon/4.6.0/../../../../xenon/lib/../lib/libstdc++.a(eh_terminate.o)
 .comment       0x0000000000000000       0x12 /usr/local/xenon/lib/gcc/xenon/4.6.0/../../../../xenon/lib/../lib/libstdc++.a(eh_exception.o)
 .comment       0x0000000000000000       0x12 /usr/local/xenon/lib/gcc/xenon/4.6.0/../../../../xenon/lib/../lib/libstdc++.a(eh_call.o)
 .comment       0x0000000000000000       0x12 /usr/local/xenon/lib/gcc/xenon/4.6.0/../../../../xenon/lib/../lib/libstdc++.a(eh_globals.o)
 .comment       0x0000000000000000       0x12 /usr/local/xenon/lib/gcc/xenon/4.6.0/../../../../xenon/lib/../lib/libstdc++.a(class_type_info.o)
 .comment       0x0000000000000000       0x12 /usr/local/xenon/lib/gcc/xenon/4.6.0/../../../../xenon/lib/../lib/libstdc++.a(eh_term_handler.o)
 .comment       0x0000000000000000       0x12 /usr/local/xenon/lib/gcc/xenon/4.6.0/../../../../xenon/lib/../lib/libstdc++.a(si_class_type_info.o)
 .comment       0x0000000000000000       0x12 /usr/local/xenon/lib/gcc/xenon/4.6.0/../../../../xenon/lib/../lib/libstdc++.a(eh_unex_handler.o)
 .comment       0x0000000000000000       0x12 /usr/local/xenon/lib/gcc/xenon/4.6.0/../../../../xenon/lib/../lib/libstdc++.a(tinfo.o)
 .comment       0x0000000000000000       0x12 /usr/local/xenon/lib/gcc/xenon/4.6.0/../../../../xenon/lib/../lib/libstdc++.a(eh_throw.o)
 .comment       0x0000000000000000       0x12 /usr/local/xenon/lib/gcc/xenon/4.6.0/../../../../xenon/lib/../lib/libstdc++.a(pure.o)
 .comment       0x0000000000000000       0x12 /usr/local/xenon/lib/gcc/xenon/4.6.0/../../../../xenon/lib/../lib/libstdc++.a(vterminate.o)
 .comment       0x0000000000000000       0x12 /usr/local/xenon/lib/gcc/xenon/4.6.0/../../../../xenon/lib/../lib/libstdc++.a(new_handler.o)
 .comment       0x0000000000000000       0x12 /usr/local/xenon/lib/gcc/xenon/4.6.0/../../../../xenon/lib/../lib/libstdc++.a(cp-demangle.o)
 .comment       0x0000000000000000       0x12 /usr/local/xenon/lib/gcc/xenon/4.6.0/../../../../xenon/lib/../lib/libstdc++.a(eh_type.o)
 .comment       0x0000000000000000       0x12 /usr/local/xenon/xenon/lib/32/libm.a(lib_a-s_floor.o)
 .comment       0x0000000000000000       0x12 /usr/local/xenon/xenon/lib/32/libm.a(lib_a-s_frexp.o)
 .comment       0x0000000000000000       0x12 /usr/local/xenon/xenon/lib/32/libm.a(lib_a-s_modf.o)
 .comment       0x0000000000000000       0x12 /usr/local/xenon/xenon/lib/32/libm.a(lib_a-s_trunc.o)
 .comment       0x0000000000000000       0x12 /usr/local/xenon/xenon/lib/32/libm.a(lib_a-w_pow.o)
 .comment       0x0000000000000000       0x12 /usr/local/xenon/xenon/lib/32/libm.a(lib_a-e_pow.o)
 .comment       0x0000000000000000       0x12 /usr/local/xenon/xenon/lib/32/libm.a(lib_a-e_sqrt.o)
 .comment       0x0000000000000000       0x12 /usr/local/xenon/xenon/lib/32/libm.a(lib_a-s_fabs.o)
 .comment       0x0000000000000000       0x12 /usr/local/xenon/xenon/lib/32/libm.a(lib_a-s_finite.o)
 .comment       0x0000000000000000       0x12 /usr/local/xenon/xenon/lib/32/libm.a(lib_a-s_isnand.o)
 .comment       0x0000000000000000       0x12 /usr/local/xenon/xenon/lib/32/libm.a(lib_a-s_lib_ver.o)
 .comment       0x0000000000000000       0x12 /usr/local/xenon/xenon/lib/32/libm.a(lib_a-s_matherr.o)
 .comment       0x0000000000000000       0x12 /usr/local/xenon/xenon/lib/32/libm.a(lib_a-s_nan.o)
 .comment       0x0000000000000000       0x12 /usr/local/xenon/xenon/lib/32/libm.a(lib_a-s_rint.o)
 .comment       0x0000000000000000       0x12 /usr/local/xenon/xenon/lib/32/libm.a(lib_a-s_scalbn.o)
 .comment       0x0000000000000000       0x12 /usr/local/xenon/xenon/lib/32/libm.a(lib_a-s_copysign.o)
 .comment       0x0000000000000000       0x12 /usr/local/xenon/lib/gcc/xenon/4.6.0/32/libgcc.a(unwind-dw2.o)
 .comment       0x0000000000000000       0x12 /usr/local/xenon/lib/gcc/xenon/4.6.0/32/libgcc.a(unwind-dw2-fde-glibc.o)
 .comment       0x0000000000000000       0x12 /usr/local/xenon/xenon/lib/32/libc.a(lib_a-abort.o)
 .comment       0x0000000000000000       0x12 /usr/local/xenon/xenon/lib/32/libc.a(lib_a-assert.o)
 .comment       0x0000000000000000       0x12 /usr/local/xenon/xenon/lib/32/libc.a(lib_a-atof.o)
 .comment       0x0000000000000000       0x12 /usr/local/xenon/xenon/lib/32/libc.a(lib_a-atoi.o)
 .comment       0x0000000000000000       0x12 /usr/local/xenon/xenon/lib/32/libc.a(lib_a-ctype_.o)
 .comment       0x0000000000000000       0x12 /usr/local/xenon/xenon/lib/32/libc.a(lib_a-cxa_atexit.o)
 .comment       0x0000000000000000       0x12 /usr/local/xenon/xenon/lib/32/libc.a(lib_a-errno.o)
 .comment       0x0000000000000000       0x12 /usr/local/xenon/xenon/lib/32/libc.a(lib_a-exit.o)
 .comment       0x0000000000000000       0x12 /usr/local/xenon/xenon/lib/32/libc.a(lib_a-fclose.o)
 .comment       0x0000000000000000       0x12 /usr/local/xenon/xenon/lib/32/libc.a(lib_a-fflush.o)
 .comment       0x0000000000000000       0x12 /usr/local/xenon/xenon/lib/32/libc.a(lib_a-findfp.o)
 .comment       0x0000000000000000       0x12 /usr/local/xenon/xenon/lib/32/libc.a(lib_a-fiprintf.o)
 .comment       0x0000000000000000       0x12 /usr/local/xenon/xenon/lib/32/libc.a(lib_a-fopen.o)
 .comment       0x0000000000000000       0x12 /usr/local/xenon/xenon/lib/32/libc.a(lib_a-fprintf.o)
 .comment       0x0000000000000000       0x12 /usr/local/xenon/xenon/lib/32/libc.a(lib_a-fputc.o)
 .comment       0x0000000000000000       0x12 /usr/local/xenon/xenon/lib/32/libc.a(lib_a-fputs.o)
 .comment       0x0000000000000000       0x12 /usr/local/xenon/xenon/lib/32/libc.a(lib_a-fread.o)
 .comment       0x0000000000000000       0x12 /usr/local/xenon/xenon/lib/32/libc.a(lib_a-freer.o)
 .comment       0x0000000000000000       0x12 /usr/local/xenon/xenon/lib/32/libc.a(lib_a-fseek.o)
 .comment       0x0000000000000000       0x12 /usr/local/xenon/xenon/lib/32/libc.a(lib_a-fstatr.o)
 .comment       0x0000000000000000       0x12 /usr/local/xenon/xenon/lib/32/libc.a(lib_a-ftell.o)
 .comment       0x0000000000000000       0x12 /usr/local/xenon/xenon/lib/32/libc.a(lib_a-fvwrite.o)
 .comment       0x0000000000000000       0x12 /usr/local/xenon/xenon/lib/32/libc.a(lib_a-fwalk.o)
 .comment       0x0000000000000000       0x12 /usr/local/xenon/xenon/lib/32/libc.a(lib_a-fwrite.o)
 .comment       0x0000000000000000       0x12 /usr/local/xenon/xenon/lib/32/libc.a(lib_a-impure.o)
 .comment       0x0000000000000000       0x12 /usr/local/xenon/xenon/lib/32/libc.a(lib_a-makebuf.o)
 .comment       0x0000000000000000       0x12 /usr/local/xenon/xenon/lib/32/libc.a(lib_a-malign.o)
 .comment       0x0000000000000000       0x12 /usr/local/xenon/xenon/lib/32/libc.a(lib_a-malignr.o)
 .comment       0x0000000000000000       0x12 /usr/local/xenon/xenon/lib/32/libc.a(lib_a-malloc.o)
 .comment       0x0000000000000000       0x12 /usr/local/xenon/xenon/lib/32/libc.a(lib_a-mallocr.o)
 .comment       0x0000000000000000       0x12 /usr/local/xenon/xenon/lib/32/libc.a(lib_a-memchr.o)
 .comment       0x0000000000000000       0x12 /usr/local/xenon/xenon/lib/32/libc.a(lib_a-memcmp.o)
 .comment       0x0000000000000000       0x12 /usr/local/xenon/xenon/lib/32/libc.a(lib_a-memcpy.o)
 .comment       0x0000000000000000       0x12 /usr/local/xenon/xenon/lib/32/libc.a(lib_a-memmove.o)
 .comment       0x0000000000000000       0x12 /usr/local/xenon/xenon/lib/32/libc.a(lib_a-memset.o)
 .comment       0x0000000000000000       0x12 /usr/local/xenon/xenon/lib/32/libc.a(lib_a-mlock.o)
 .comment       0x0000000000000000       0x12 /usr/local/xenon/xenon/lib/32/libc.a(lib_a-openr.o)
 .comment       0x0000000000000000       0x12 /usr/local/xenon/xenon/lib/32/libc.a(lib_a-printf.o)
 .comment       0x0000000000000000       0x12 /usr/local/xenon/xenon/lib/32/libc.a(lib_a-putchar.o)
 .comment       0x0000000000000000       0x12 /usr/local/xenon/xenon/lib/32/libc.a(lib_a-putc.o)
 .comment       0x0000000000000000       0x12 /usr/local/xenon/xenon/lib/32/libc.a(lib_a-puts.o)
 .comment       0x0000000000000000       0x12 /usr/local/xenon/xenon/lib/32/libc.a(lib_a-rand.o)
 .comment       0x0000000000000000       0x12 /usr/local/xenon/xenon/lib/32/libc.a(lib_a-realloc.o)
 .comment       0x0000000000000000       0x12 /usr/local/xenon/xenon/lib/32/libc.a(lib_a-reallocr.o)
 .comment       0x0000000000000000       0x12 /usr/local/xenon/xenon/lib/32/libc.a(lib_a-reent.o)
 .comment       0x0000000000000000       0x12 /usr/local/xenon/xenon/lib/32/libc.a(lib_a-refill.o)
 .comment       0x0000000000000000       0x12 /usr/local/xenon/xenon/lib/32/libc.a(lib_a-sbrkr.o)
 .comment       0x0000000000000000       0x12 /usr/local/xenon/xenon/lib/32/libc.a(lib_a-signal.o)
 .comment       0x0000000000000000       0x12 /usr/local/xenon/xenon/lib/32/libc.a(lib_a-signalr.o)
 .comment       0x0000000000000000       0x12 /usr/local/xenon/xenon/lib/32/libc.a(lib_a-snprintf.o)
 .comment       0x0000000000000000       0x12 /usr/local/xenon/xenon/lib/32/libc.a(lib_a-sprintf.o)
 .comment       0x0000000000000000       0x12 /usr/local/xenon/xenon/lib/32/libc.a(lib_a-stdio.o)
 .comment       0x0000000000000000       0x12 /usr/local/xenon/xenon/lib/32/libc.a(lib_a-strcasecmp.o)
 .comment       0x0000000000000000       0x12 /usr/local/xenon/xenon/lib/32/libc.a(lib_a-strcat.o)
 .comment       0x0000000000000000       0x12 /usr/local/xenon/xenon/lib/32/libc.a(lib_a-strchr.o)
 .comment       0x0000000000000000       0x12 /usr/local/xenon/xenon/lib/32/libc.a(lib_a-strcmp.o)
 .comment       0x0000000000000000       0x12 /usr/local/xenon/xenon/lib/32/libc.a(lib_a-strcpy.o)
 .comment       0x0000000000000000       0x12 /usr/local/xenon/xenon/lib/32/libc.a(lib_a-strlcpy.o)
 .comment       0x0000000000000000       0x12 /usr/local/xenon/xenon/lib/32/libc.a(lib_a-strlen.o)
 .comment       0x0000000000000000       0x12 /usr/local/xenon/xenon/lib/32/libc.a(lib_a-strncasecmp.o)
 .comment       0x0000000000000000       0x12 /usr/local/xenon/xenon/lib/32/libc.a(lib_a-strncmp.o)
 .comment       0x0000000000000000       0x12 /usr/local/xenon/xenon/lib/32/libc.a(lib_a-strncpy.o)
 .comment       0x0000000000000000       0x12 /usr/local/xenon/xenon/lib/32/libc.a(lib_a-strrchr.o)
 .comment       0x0000000000000000       0x12 /usr/local/xenon/xenon/lib/32/libc.a(lib_a-strtod.o)
 .comment       0x0000000000000000       0x12 /usr/local/xenon/xenon/lib/32/libc.a(lib_a-strtok_r.o)
 .comment       0x0000000000000000       0x12 /usr/local/xenon/xenon/lib/32/libc.a(lib_a-strtol.o)
 .comment       0x0000000000000000       0x12 /usr/local/xenon/xenon/lib/32/libc.a(lib_a-svfprintf.o)
 .comment       0x0000000000000000       0x12 /usr/local/xenon/xenon/lib/32/libc.a(lib_a-vfiprintf.o)
 .comment       0x0000000000000000       0x12 /usr/local/xenon/xenon/lib/32/libc.a(lib_a-vfprintf.o)
 .comment       0x0000000000000000       0x12 /usr/local/xenon/xenon/lib/32/libc.a(lib_a-vprintf.o)
 .comment       0x0000000000000000       0x12 /usr/local/xenon/xenon/lib/32/libc.a(lib_a-vsprintf.o)
 .comment       0x0000000000000000       0x12 /usr/local/xenon/xenon/lib/32/libc.a(lib_a-wbuf.o)
 .comment       0x0000000000000000       0x12 /usr/local/xenon/xenon/lib/32/libc.a(lib_a-writer.o)
 .comment       0x0000000000000000       0x12 /usr/local/xenon/xenon/lib/32/libc.a(lib_a-wsetup.o)
 .comment       0x0000000000000000       0x12 /usr/local/xenon/xenon/lib/32/libc.a(lib_a-__atexit.o)
 .comment       0x0000000000000000       0x12 /usr/local/xenon/xenon/lib/32/libc.a(lib_a-__call_atexit.o)
 .comment       0x0000000000000000       0x12 /usr/local/xenon/xenon/lib/32/libc.a(lib_a-closer.o)
 .comment       0x0000000000000000       0x12 /usr/local/xenon/xenon/lib/32/libc.a(lib_a-dtoa.o)
 .comment       0x0000000000000000       0x12 /usr/local/xenon/xenon/lib/32/libc.a(lib_a-flags.o)
 .comment       0x0000000000000000       0x12 /usr/local/xenon/xenon/lib/32/libc.a(lib_a-gdtoa-gethex.o)
 .comment       0x0000000000000000       0x12 /usr/local/xenon/xenon/lib/32/libc.a(lib_a-gdtoa-hexnan.o)
 .comment       0x0000000000000000       0x12 /usr/local/xenon/xenon/lib/32/libc.a(lib_a-isattyr.o)
 .comment       0x0000000000000000       0x12 /usr/local/xenon/xenon/lib/32/libc.a(lib_a-locale.o)
 .comment       0x0000000000000000       0x12 /usr/local/xenon/xenon/lib/32/libc.a(lib_a-lseekr.o)
 .comment       0x0000000000000000       0x12 /usr/local/xenon/xenon/lib/32/libc.a(lib_a-mprec.o)
 .comment       0x0000000000000000       0x12 /usr/local/xenon/xenon/lib/32/libc.a(lib_a-readr.o)
 .comment       0x0000000000000000       0x12 /usr/local/xenon/xenon/lib/32/libc.a(lib_a-sf_nan.o)
 .comment       0x0000000000000000       0x12 /usr/local/xenon/xenon/lib/32/libc.a(lib_a-s_isinfd.o)
 .comment       0x0000000000000000       0x12 /usr/local/xenon/xenon/lib/32/libc.a(lib_a-callocr.o)
 .comment       0x0000000000000000       0x12 /usr/local/xenon/lib/gcc/xenon/4.6.0/32/libgcc.a(_udivdi3.o)
 .comment       0x0000000000000000       0x12 /usr/local/xenon/lib/gcc/xenon/4.6.0/32/libgcc.a(_umoddi3.o)
 .comment       0x0000000000000000       0x12 /usr/local/xenon/lib/gcc/xenon/4.6.0/32/crtend.o

.note.GNU-stack
                0x0000000000000000        0x0
 .note.GNU-stack
                0x0000000000000000        0x0 /usr/local/xenon/lib/gcc/xenon/4.6.0/../../../../xenon/lib/../lib/crt1.o
 .note.GNU-stack
                0x0000000000000000        0x0 /usr/local/xenon/lib/gcc/xenon/4.6.0/32/crtbegin.o
 .note.GNU-stack
                0x0000000000000000        0x0 main.o
 .note.GNU-stack
                0x0000000000000000        0x0 Tank.o
 .note.GNU-stack
                0x0000000000000000        0x0 Tools.o
 .note.GNU-stack
                0x0000000000000000        0x0 Console.o
 .note.GNU-stack
                0x0000000000000000        0x0 Draw.o
 .note.GNU-stack
                0x0000000000000000        0x0 Font.o
 .note.GNU-stack
                0x0000000000000000        0x0 stdafx.o
 .note.GNU-stack
                0x0000000000000000        0x0 Utils.o
 .note.GNU-stack
                0x0000000000000000        0x0 zlx.o
 .note.GNU-stack
                0x0000000000000000        0x0 /usr/local/xenon/usr/lib/libxenon.a(ata.o)
 .note.GNU-stack
                0x0000000000000000        0x0 /usr/local/xenon/usr/lib/libxenon.a(input.o)
 .note.GNU-stack
                0x0000000000000000        0x0 /usr/local/xenon/usr/lib/libxenon.a(newlib.o)
 .note.GNU-stack
                0x0000000000000000        0x0 /usr/local/xenon/usr/lib/libxenon.a(vm.o)
 .note.GNU-stack
                0x0000000000000000        0x0 /usr/local/xenon/usr/lib/libxenon.a(time.o)
 .note.GNU-stack
                0x0000000000000000        0x0 /usr/local/xenon/usr/lib/libxenon.a(usbmain.o)
 .note.GNU-stack
                0x0000000000000000        0x0 /usr/local/xenon/usr/lib/libxenon.a(tinyehci.o)
 .note.GNU-stack
                0x0000000000000000        0x0 /usr/local/xenon/usr/lib/libxenon.a(xenon_smc.o)
 .note.GNU-stack
                0x0000000000000000        0x0 /usr/local/xenon/usr/lib/libxenon.a(xenon_uart.o)
 .note.GNU-stack
                0x0000000000000000        0x0 /usr/local/xenon/usr/lib/libxenon.a(edram.o)
 .note.GNU-stack
                0x0000000000000000        0x0 /usr/local/xenon/usr/lib/libxenon.a(xe.o)
 .note.GNU-stack
                0x0000000000000000        0x0 /usr/local/xenon/usr/lib/libxenon.a(xenos.o)
 .note.GNU-stack
                0x0000000000000000        0x0 /usr/local/xenon/usr/lib/libxenon.a(diskio.o)
 .note.GNU-stack
                0x0000000000000000        0x0 /usr/local/xenon/usr/lib/libxenon.a(fat.o)
 .note.GNU-stack
                0x0000000000000000        0x0 /usr/local/xenon/usr/lib/libxenon.a(fat_rb.o)
 .note.GNU-stack
                0x0000000000000000        0x0 /usr/local/xenon/usr/lib/libxenon.a(file_rb.o)
 .note.GNU-stack
                0x0000000000000000        0x0 /usr/local/xenon/usr/lib/libxenon.a(dir_rb.o)
 .note.GNU-stack
                0x0000000000000000        0x0 /usr/local/xenon/usr/lib/libxenon.a(iso9660.o)
 .note.GNU-stack
                0x0000000000000000        0x0 /usr/local/xenon/usr/lib/libxenon.a(lib_malloc.o)
 .note.GNU-stack
                0x0000000000000000        0x0 /usr/local/xenon/usr/lib/libxenon.a(io.o)
 .note.GNU-stack
                0x0000000000000000        0x0 /usr/local/xenon/usr/lib/libxenon.a(ohci.o)
 .note.GNU-stack
                0x0000000000000000        0x0 /usr/local/xenon/usr/lib/libxenon.a(usbd.o)
 .note.GNU-stack
                0x0000000000000000        0x0 /usr/local/xenon/usr/lib/libxenon.a(usbdevs.o)
 .note.GNU-stack
                0x0000000000000000        0x0 /usr/local/xenon/usr/lib/libxenon.a(usbhid.o)
 .note.GNU-stack
                0x0000000000000000        0x0 /usr/local/xenon/usr/lib/libxenon.a(usbhub.o)
 .note.GNU-stack
                0x0000000000000000        0x0 /usr/local/xenon/usr/lib/libxenon.a(usb_os.o)
 .note.GNU-stack
                0x0000000000000000        0x0 /usr/local/xenon/usr/lib/libxenon.a(unicode_rb.o)
 .note.GNU-stack
                0x0000000000000000        0x0 /usr/local/xenon/usr/lib/libxenon.a(xenon_gpio.o)
 .note.GNU-stack
                0x0000000000000000        0x0 /usr/local/xenon/usr/lib/libxenon.a(xenon_config.o)
 .note.GNU-stack
                0x0000000000000000        0x0 /usr/local/xenon/usr/lib/libxenon.a(ucode.o)
 .note.GNU-stack
                0x0000000000000000        0x0 /usr/local/xenon/usr/lib/libxenon.a(disk_rb.o)
 .note.GNU-stack
                0x0000000000000000        0x0 /usr/local/xenon/usr/lib/libxenon.a(lib_queue.o)
 .note.GNU-stack
                0x0000000000000000        0x0 /usr/local/xenon/usr/lib/libxenon.a(usbctrl.o)
 .note.GNU-stack
                0x0000000000000000        0x0 /usr/local/xenon/usr/lib/libxenon.a(usbdebug.o)
 .note.GNU-stack
                0x0000000000000000        0x0 /usr/local/xenon/usr/lib/libxenon.a(xenon_sfcx.o)
 .note.GNU-stack
                0x0000000000000000        0x0 /usr/local/xenon/usr/lib/libpng.a(libpng15_la-png.o)
 .note.GNU-stack
                0x0000000000000000        0x0 /usr/local/xenon/usr/lib/libpng.a(libpng15_la-pngerror.o)
 .note.GNU-stack
                0x0000000000000000        0x0 /usr/local/xenon/usr/lib/libpng.a(libpng15_la-pngmem.o)
 .note.GNU-stack
                0x0000000000000000        0x0 /usr/local/xenon/usr/lib/libpng.a(libpng15_la-pngread.o)
 .note.GNU-stack
                0x0000000000000000        0x0 /usr/local/xenon/usr/lib/libpng.a(libpng15_la-pngrio.o)
 .note.GNU-stack
                0x0000000000000000        0x0 /usr/local/xenon/usr/lib/libpng.a(libpng15_la-pngrtran.o)
 .note.GNU-stack
                0x0000000000000000        0x0 /usr/local/xenon/usr/lib/libpng.a(libpng15_la-pngrutil.o)
 .note.GNU-stack
                0x0000000000000000        0x0 /usr/local/xenon/usr/lib/libpng.a(libpng15_la-pngset.o)
 .note.GNU-stack
                0x0000000000000000        0x0 /usr/local/xenon/usr/lib/libpng.a(libpng15_la-pngtrans.o)
 .note.GNU-stack
                0x0000000000000000        0x0 /usr/local/xenon/usr/lib/libpng.a(libpng15_la-pngget.o)
 .note.GNU-stack
                0x0000000000000000        0x0 /usr/local/xenon/usr/lib/libz.a(crc32.o)
 .note.GNU-stack
                0x0000000000000000        0x0 /usr/local/xenon/usr/lib/libz.a(inflate.o)
 .note.GNU-stack
                0x0000000000000000        0x0 /usr/local/xenon/usr/lib/libz.a(inftrees.o)
 .note.GNU-stack
                0x0000000000000000        0x0 /usr/local/xenon/usr/lib/libz.a(zutil.o)
 .note.GNU-stack
                0x0000000000000000        0x0 /usr/local/xenon/usr/lib/libz.a(adler32.o)
 .note.GNU-stack
                0x0000000000000000        0x0 /usr/local/xenon/usr/lib/libz.a(inffast.o)
 .note.GNU-stack
                0x0000000000000000        0x0 /usr/local/xenon/lib/gcc/xenon/4.6.0/../../../../xenon/lib/../lib/libstdc++.a(new_opv.o)
 .note.GNU-stack
                0x0000000000000000        0x0 /usr/local/xenon/lib/gcc/xenon/4.6.0/../../../../xenon/lib/../lib/libstdc++.a(eh_personality.o)
 .note.GNU-stack
                0x0000000000000000        0x0 /usr/local/xenon/lib/gcc/xenon/4.6.0/../../../../xenon/lib/../lib/libstdc++.a(eh_alloc.o)
 .note.GNU-stack
                0x0000000000000000        0x0 /usr/local/xenon/lib/gcc/xenon/4.6.0/../../../../xenon/lib/../lib/libstdc++.a(bad_alloc.o)
 .note.GNU-stack
                0x0000000000000000        0x0 /usr/local/xenon/lib/gcc/xenon/4.6.0/../../../../xenon/lib/../lib/libstdc++.a(del_op.o)
 .note.GNU-stack
                0x0000000000000000        0x0 /usr/local/xenon/lib/gcc/xenon/4.6.0/../../../../xenon/lib/../lib/libstdc++.a(eh_catch.o)
 .note.GNU-stack
                0x0000000000000000        0x0 /usr/local/xenon/lib/gcc/xenon/4.6.0/../../../../xenon/lib/../lib/libstdc++.a(new_op.o)
 .note.GNU-stack
                0x0000000000000000        0x0 /usr/local/xenon/lib/gcc/xenon/4.6.0/../../../../xenon/lib/../lib/libstdc++.a(eh_terminate.o)
 .note.GNU-stack
                0x0000000000000000        0x0 /usr/local/xenon/lib/gcc/xenon/4.6.0/../../../../xenon/lib/../lib/libstdc++.a(eh_exception.o)
 .note.GNU-stack
                0x0000000000000000        0x0 /usr/local/xenon/lib/gcc/xenon/4.6.0/../../../../xenon/lib/../lib/libstdc++.a(eh_call.o)
 .note.GNU-stack
                0x0000000000000000        0x0 /usr/local/xenon/lib/gcc/xenon/4.6.0/../../../../xenon/lib/../lib/libstdc++.a(eh_globals.o)
 .note.GNU-stack
                0x0000000000000000        0x0 /usr/local/xenon/lib/gcc/xenon/4.6.0/../../../../xenon/lib/../lib/libstdc++.a(class_type_info.o)
 .note.GNU-stack
                0x0000000000000000        0x0 /usr/local/xenon/lib/gcc/xenon/4.6.0/../../../../xenon/lib/../lib/libstdc++.a(eh_term_handler.o)
 .note.GNU-stack
                0x0000000000000000        0x0 /usr/local/xenon/lib/gcc/xenon/4.6.0/../../../../xenon/lib/../lib/libstdc++.a(si_class_type_info.o)
 .note.GNU-stack
                0x0000000000000000        0x0 /usr/local/xenon/lib/gcc/xenon/4.6.0/../../../../xenon/lib/../lib/libstdc++.a(eh_unex_handler.o)
 .note.GNU-stack
                0x0000000000000000        0x0 /usr/local/xenon/lib/gcc/xenon/4.6.0/../../../../xenon/lib/../lib/libstdc++.a(tinfo.o)
 .note.GNU-stack
                0x0000000000000000        0x0 /usr/local/xenon/lib/gcc/xenon/4.6.0/../../../../xenon/lib/../lib/libstdc++.a(eh_throw.o)
 .note.GNU-stack
                0x0000000000000000        0x0 /usr/local/xenon/lib/gcc/xenon/4.6.0/../../../../xenon/lib/../lib/libstdc++.a(pure.o)
 .note.GNU-stack
                0x0000000000000000        0x0 /usr/local/xenon/lib/gcc/xenon/4.6.0/../../../../xenon/lib/../lib/libstdc++.a(vterminate.o)
 .note.GNU-stack
                0x0000000000000000        0x0 /usr/local/xenon/lib/gcc/xenon/4.6.0/../../../../xenon/lib/../lib/libstdc++.a(new_handler.o)
 .note.GNU-stack
                0x0000000000000000        0x0 /usr/local/xenon/lib/gcc/xenon/4.6.0/../../../../xenon/lib/../lib/libstdc++.a(cp-demangle.o)
 .note.GNU-stack
                0x0000000000000000        0x0 /usr/local/xenon/lib/gcc/xenon/4.6.0/../../../../xenon/lib/../lib/libstdc++.a(eh_type.o)
 .note.GNU-stack
                0x0000000000000000        0x0 /usr/local/xenon/xenon/lib/32/libm.a(lib_a-s_floor.o)
 .note.GNU-stack
                0x0000000000000000        0x0 /usr/local/xenon/xenon/lib/32/libm.a(lib_a-s_frexp.o)
 .note.GNU-stack
                0x0000000000000000        0x0 /usr/local/xenon/xenon/lib/32/libm.a(lib_a-s_modf.o)
 .note.GNU-stack
                0x0000000000000000        0x0 /usr/local/xenon/xenon/lib/32/libm.a(lib_a-s_trunc.o)
 .note.GNU-stack
                0x0000000000000000        0x0 /usr/local/xenon/xenon/lib/32/libm.a(lib_a-w_pow.o)
 .note.GNU-stack
                0x0000000000000000        0x0 /usr/local/xenon/xenon/lib/32/libm.a(lib_a-e_pow.o)
 .note.GNU-stack
                0x0000000000000000        0x0 /usr/local/xenon/xenon/lib/32/libm.a(lib_a-e_sqrt.o)
 .note.GNU-stack
                0x0000000000000000        0x0 /usr/local/xenon/xenon/lib/32/libm.a(lib_a-s_fabs.o)
 .note.GNU-stack
                0x0000000000000000        0x0 /usr/local/xenon/xenon/lib/32/libm.a(lib_a-s_finite.o)
 .note.GNU-stack
                0x0000000000000000        0x0 /usr/local/xenon/xenon/lib/32/libm.a(lib_a-s_isnand.o)
 .note.GNU-stack
                0x0000000000000000        0x0 /usr/local/xenon/xenon/lib/32/libm.a(lib_a-s_lib_ver.o)
 .note.GNU-stack
                0x0000000000000000        0x0 /usr/local/xenon/xenon/lib/32/libm.a(lib_a-s_matherr.o)
 .note.GNU-stack
                0x0000000000000000        0x0 /usr/local/xenon/xenon/lib/32/libm.a(lib_a-s_nan.o)
 .note.GNU-stack
                0x0000000000000000        0x0 /usr/local/xenon/xenon/lib/32/libm.a(lib_a-s_rint.o)
 .note.GNU-stack
                0x0000000000000000        0x0 /usr/local/xenon/xenon/lib/32/libm.a(lib_a-s_scalbn.o)
 .note.GNU-stack
                0x0000000000000000        0x0 /usr/local/xenon/xenon/lib/32/libm.a(lib_a-s_copysign.o)
 .note.GNU-stack
                0x0000000000000000        0x0 /usr/local/xenon/lib/gcc/xenon/4.6.0/32/libgcc.a(crtsavgpr.o)
 .note.GNU-stack
                0x0000000000000000        0x0 /usr/local/xenon/lib/gcc/xenon/4.6.0/32/libgcc.a(crtresxgpr.o)
 .note.GNU-stack
                0x0000000000000000        0x0 /usr/local/xenon/lib/gcc/xenon/4.6.0/32/libgcc.a(unwind-dw2.o)
 .note.GNU-stack
                0x0000000000000000        0x0 /usr/local/xenon/lib/gcc/xenon/4.6.0/32/libgcc.a(unwind-dw2-fde-glibc.o)
 .note.GNU-stack
                0x0000000000000000        0x0 /usr/local/xenon/xenon/lib/32/libc.a(lib_a-abort.o)
 .note.GNU-stack
                0x0000000000000000        0x0 /usr/local/xenon/xenon/lib/32/libc.a(lib_a-assert.o)
 .note.GNU-stack
                0x0000000000000000        0x0 /usr/local/xenon/xenon/lib/32/libc.a(lib_a-atof.o)
 .note.GNU-stack
                0x0000000000000000        0x0 /usr/local/xenon/xenon/lib/32/libc.a(lib_a-atoi.o)
 .note.GNU-stack
                0x0000000000000000        0x0 /usr/local/xenon/xenon/lib/32/libc.a(lib_a-ctype_.o)
 .note.GNU-stack
                0x0000000000000000        0x0 /usr/local/xenon/xenon/lib/32/libc.a(lib_a-cxa_atexit.o)
 .note.GNU-stack
                0x0000000000000000        0x0 /usr/local/xenon/xenon/lib/32/libc.a(lib_a-errno.o)
 .note.GNU-stack
                0x0000000000000000        0x0 /usr/local/xenon/xenon/lib/32/libc.a(lib_a-exit.o)
 .note.GNU-stack
                0x0000000000000000        0x0 /usr/local/xenon/xenon/lib/32/libc.a(lib_a-fclose.o)
 .note.GNU-stack
                0x0000000000000000        0x0 /usr/local/xenon/xenon/lib/32/libc.a(lib_a-fflush.o)
 .note.GNU-stack
                0x0000000000000000        0x0 /usr/local/xenon/xenon/lib/32/libc.a(lib_a-findfp.o)
 .note.GNU-stack
                0x0000000000000000        0x0 /usr/local/xenon/xenon/lib/32/libc.a(lib_a-fiprintf.o)
 .note.GNU-stack
                0x0000000000000000        0x0 /usr/local/xenon/xenon/lib/32/libc.a(lib_a-fopen.o)
 .note.GNU-stack
                0x0000000000000000        0x0 /usr/local/xenon/xenon/lib/32/libc.a(lib_a-fprintf.o)
 .note.GNU-stack
                0x0000000000000000        0x0 /usr/local/xenon/xenon/lib/32/libc.a(lib_a-fputc.o)
 .note.GNU-stack
                0x0000000000000000        0x0 /usr/local/xenon/xenon/lib/32/libc.a(lib_a-fputs.o)
 .note.GNU-stack
                0x0000000000000000        0x0 /usr/local/xenon/xenon/lib/32/libc.a(lib_a-fread.o)
 .note.GNU-stack
                0x0000000000000000        0x0 /usr/local/xenon/xenon/lib/32/libc.a(lib_a-freer.o)
 .note.GNU-stack
                0x0000000000000000        0x0 /usr/local/xenon/xenon/lib/32/libc.a(lib_a-fseek.o)
 .note.GNU-stack
                0x0000000000000000        0x0 /usr/local/xenon/xenon/lib/32/libc.a(lib_a-fstatr.o)
 .note.GNU-stack
                0x0000000000000000        0x0 /usr/local/xenon/xenon/lib/32/libc.a(lib_a-ftell.o)
 .note.GNU-stack
                0x0000000000000000        0x0 /usr/local/xenon/xenon/lib/32/libc.a(lib_a-fvwrite.o)
 .note.GNU-stack
                0x0000000000000000        0x0 /usr/local/xenon/xenon/lib/32/libc.a(lib_a-fwalk.o)
 .note.GNU-stack
                0x0000000000000000        0x0 /usr/local/xenon/xenon/lib/32/libc.a(lib_a-fwrite.o)
 .note.GNU-stack
                0x0000000000000000        0x0 /usr/local/xenon/xenon/lib/32/libc.a(lib_a-impure.o)
 .note.GNU-stack
                0x0000000000000000        0x0 /usr/local/xenon/xenon/lib/32/libc.a(lib_a-makebuf.o)
 .note.GNU-stack
                0x0000000000000000        0x0 /usr/local/xenon/xenon/lib/32/libc.a(lib_a-malign.o)
 .note.GNU-stack
                0x0000000000000000        0x0 /usr/local/xenon/xenon/lib/32/libc.a(lib_a-malignr.o)
 .note.GNU-stack
                0x0000000000000000        0x0 /usr/local/xenon/xenon/lib/32/libc.a(lib_a-malloc.o)
 .note.GNU-stack
                0x0000000000000000        0x0 /usr/local/xenon/xenon/lib/32/libc.a(lib_a-mallocr.o)
 .note.GNU-stack
                0x0000000000000000        0x0 /usr/local/xenon/xenon/lib/32/libc.a(lib_a-memchr.o)
 .note.GNU-stack
                0x0000000000000000        0x0 /usr/local/xenon/xenon/lib/32/libc.a(lib_a-memcmp.o)
 .note.GNU-stack
                0x0000000000000000        0x0 /usr/local/xenon/xenon/lib/32/libc.a(lib_a-memcpy.o)
 .note.GNU-stack
                0x0000000000000000        0x0 /usr/local/xenon/xenon/lib/32/libc.a(lib_a-memmove.o)
 .note.GNU-stack
                0x0000000000000000        0x0 /usr/local/xenon/xenon/lib/32/libc.a(lib_a-memset.o)
 .note.GNU-stack
                0x0000000000000000        0x0 /usr/local/xenon/xenon/lib/32/libc.a(lib_a-mlock.o)
 .note.GNU-stack
                0x0000000000000000        0x0 /usr/local/xenon/xenon/lib/32/libc.a(lib_a-openr.o)
 .note.GNU-stack
                0x0000000000000000        0x0 /usr/local/xenon/xenon/lib/32/libc.a(lib_a-printf.o)
 .note.GNU-stack
                0x0000000000000000        0x0 /usr/local/xenon/xenon/lib/32/libc.a(lib_a-putchar.o)
 .note.GNU-stack
                0x0000000000000000        0x0 /usr/local/xenon/xenon/lib/32/libc.a(lib_a-putc.o)
 .note.GNU-stack
                0x0000000000000000        0x0 /usr/local/xenon/xenon/lib/32/libc.a(lib_a-puts.o)
 .note.GNU-stack
                0x0000000000000000        0x0 /usr/local/xenon/xenon/lib/32/libc.a(lib_a-rand.o)
 .note.GNU-stack
                0x0000000000000000        0x0 /usr/local/xenon/xenon/lib/32/libc.a(lib_a-realloc.o)
 .note.GNU-stack
                0x0000000000000000        0x0 /usr/local/xenon/xenon/lib/32/libc.a(lib_a-reallocr.o)
 .note.GNU-stack
                0x0000000000000000        0x0 /usr/local/xenon/xenon/lib/32/libc.a(lib_a-reent.o)
 .note.GNU-stack
                0x0000000000000000        0x0 /usr/local/xenon/xenon/lib/32/libc.a(lib_a-refill.o)
 .note.GNU-stack
                0x0000000000000000        0x0 /usr/local/xenon/xenon/lib/32/libc.a(lib_a-sbrkr.o)
 .note.GNU-stack
                0x0000000000000000        0x0 /usr/local/xenon/xenon/lib/32/libc.a(lib_a-setjmp.o)
 .note.GNU-stack
                0x0000000000000000        0x0 /usr/local/xenon/xenon/lib/32/libc.a(lib_a-signal.o)
 .note.GNU-stack
                0x0000000000000000        0x0 /usr/local/xenon/xenon/lib/32/libc.a(lib_a-signalr.o)
 .note.GNU-stack
                0x0000000000000000        0x0 /usr/local/xenon/xenon/lib/32/libc.a(lib_a-snprintf.o)
 .note.GNU-stack
                0x0000000000000000        0x0 /usr/local/xenon/xenon/lib/32/libc.a(lib_a-sprintf.o)
 .note.GNU-stack
                0x0000000000000000        0x0 /usr/local/xenon/xenon/lib/32/libc.a(lib_a-stdio.o)
 .note.GNU-stack
                0x0000000000000000        0x0 /usr/local/xenon/xenon/lib/32/libc.a(lib_a-strcasecmp.o)
 .note.GNU-stack
                0x0000000000000000        0x0 /usr/local/xenon/xenon/lib/32/libc.a(lib_a-strcat.o)
 .note.GNU-stack
                0x0000000000000000        0x0 /usr/local/xenon/xenon/lib/32/libc.a(lib_a-strchr.o)
 .note.GNU-stack
                0x0000000000000000        0x0 /usr/local/xenon/xenon/lib/32/libc.a(lib_a-strcmp.o)
 .note.GNU-stack
                0x0000000000000000        0x0 /usr/local/xenon/xenon/lib/32/libc.a(lib_a-strcpy.o)
 .note.GNU-stack
                0x0000000000000000        0x0 /usr/local/xenon/xenon/lib/32/libc.a(lib_a-strlcpy.o)
 .note.GNU-stack
                0x0000000000000000        0x0 /usr/local/xenon/xenon/lib/32/libc.a(lib_a-strlen.o)
 .note.GNU-stack
                0x0000000000000000        0x0 /usr/local/xenon/xenon/lib/32/libc.a(lib_a-strncasecmp.o)
 .note.GNU-stack
                0x0000000000000000        0x0 /usr/local/xenon/xenon/lib/32/libc.a(lib_a-strncmp.o)
 .note.GNU-stack
                0x0000000000000000        0x0 /usr/local/xenon/xenon/lib/32/libc.a(lib_a-strncpy.o)
 .note.GNU-stack
                0x0000000000000000        0x0 /usr/local/xenon/xenon/lib/32/libc.a(lib_a-strrchr.o)
 .note.GNU-stack
                0x0000000000000000        0x0 /usr/local/xenon/xenon/lib/32/libc.a(lib_a-strtod.o)
 .note.GNU-stack
                0x0000000000000000        0x0 /usr/local/xenon/xenon/lib/32/libc.a(lib_a-strtok_r.o)
 .note.GNU-stack
                0x0000000000000000        0x0 /usr/local/xenon/xenon/lib/32/libc.a(lib_a-strtol.o)
 .note.GNU-stack
                0x0000000000000000        0x0 /usr/local/xenon/xenon/lib/32/libc.a(lib_a-svfprintf.o)
 .note.GNU-stack
                0x0000000000000000        0x0 /usr/local/xenon/xenon/lib/32/libc.a(lib_a-vfiprintf.o)
 .note.GNU-stack
                0x0000000000000000        0x0 /usr/local/xenon/xenon/lib/32/libc.a(lib_a-vfprintf.o)
 .note.GNU-stack
                0x0000000000000000        0x0 /usr/local/xenon/xenon/lib/32/libc.a(lib_a-vprintf.o)
 .note.GNU-stack
                0x0000000000000000        0x0 /usr/local/xenon/xenon/lib/32/libc.a(lib_a-vsprintf.o)
 .note.GNU-stack
                0x0000000000000000        0x0 /usr/local/xenon/xenon/lib/32/libc.a(lib_a-wbuf.o)
 .note.GNU-stack
                0x0000000000000000        0x0 /usr/local/xenon/xenon/lib/32/libc.a(lib_a-writer.o)
 .note.GNU-stack
                0x0000000000000000        0x0 /usr/local/xenon/xenon/lib/32/libc.a(lib_a-wsetup.o)
 .note.GNU-stack
                0x0000000000000000        0x0 /usr/local/xenon/xenon/lib/32/libc.a(lib_a-__atexit.o)
 .note.GNU-stack
                0x0000000000000000        0x0 /usr/local/xenon/xenon/lib/32/libc.a(lib_a-__call_atexit.o)
 .note.GNU-stack
                0x0000000000000000        0x0 /usr/local/xenon/xenon/lib/32/libc.a(lib_a-closer.o)
 .note.GNU-stack
                0x0000000000000000        0x0 /usr/local/xenon/xenon/lib/32/libc.a(lib_a-dtoa.o)
 .note.GNU-stack
                0x0000000000000000        0x0 /usr/local/xenon/xenon/lib/32/libc.a(lib_a-flags.o)
 .note.GNU-stack
                0x0000000000000000        0x0 /usr/local/xenon/xenon/lib/32/libc.a(lib_a-gdtoa-gethex.o)
 .note.GNU-stack
                0x0000000000000000        0x0 /usr/local/xenon/xenon/lib/32/libc.a(lib_a-gdtoa-hexnan.o)
 .note.GNU-stack
                0x0000000000000000        0x0 /usr/local/xenon/xenon/lib/32/libc.a(lib_a-isattyr.o)
 .note.GNU-stack
                0x0000000000000000        0x0 /usr/local/xenon/xenon/lib/32/libc.a(lib_a-locale.o)
 .note.GNU-stack
                0x0000000000000000        0x0 /usr/local/xenon/xenon/lib/32/libc.a(lib_a-lseekr.o)
 .note.GNU-stack
                0x0000000000000000        0x0 /usr/local/xenon/xenon/lib/32/libc.a(lib_a-mprec.o)
 .note.GNU-stack
                0x0000000000000000        0x0 /usr/local/xenon/xenon/lib/32/libc.a(lib_a-readr.o)
 .note.GNU-stack
                0x0000000000000000        0x0 /usr/local/xenon/xenon/lib/32/libc.a(lib_a-sf_nan.o)
 .note.GNU-stack
                0x0000000000000000        0x0 /usr/local/xenon/xenon/lib/32/libc.a(lib_a-s_isinfd.o)
 .note.GNU-stack
                0x0000000000000000        0x0 /usr/local/xenon/xenon/lib/32/libc.a(lib_a-callocr.o)
 .note.GNU-stack
                0x0000000000000000        0x0 /usr/local/xenon/lib/gcc/xenon/4.6.0/32/libgcc.a(_udivdi3.o)
 .note.GNU-stack
                0x0000000000000000        0x0 /usr/local/xenon/lib/gcc/xenon/4.6.0/32/libgcc.a(_umoddi3.o)
 .note.GNU-stack
                0x0000000000000000        0x0 /usr/local/xenon/lib/gcc/xenon/4.6.0/32/crtend.o

.gnu.attributes
                0x0000000000000000       0x10
 .gnu.attributes
                0x0000000000000000       0x10 main.o
 .gnu.attributes
                0x0000000000000010       0x10 Tank.o
 .gnu.attributes
                0x0000000000000020       0x10 Console.o
 .gnu.attributes
                0x0000000000000030       0x10 Draw.o
 .gnu.attributes
                0x0000000000000040       0x10 Font.o
 .gnu.attributes
                0x0000000000000050       0x10 /usr/local/xenon/usr/lib/libxenon.a(xe.o)
 .gnu.attributes
                0x0000000000000060       0x10 /usr/local/xenon/usr/lib/libpng.a(libpng15_la-png.o)
 .gnu.attributes
                0x0000000000000070       0x10 /usr/local/xenon/usr/lib/libpng.a(libpng15_la-pngrtran.o)
 .gnu.attributes
                0x0000000000000080       0x10 /usr/local/xenon/usr/lib/libpng.a(libpng15_la-pngset.o)
 .gnu.attributes
                0x0000000000000090       0x10 /usr/local/xenon/usr/lib/libpng.a(libpng15_la-pngget.o)
 .gnu.attributes
                0x00000000000000a0       0x10 /usr/local/xenon/xenon/lib/32/libm.a(lib_a-s_floor.o)
 .gnu.attributes
                0x00000000000000b0       0x10 /usr/local/xenon/xenon/lib/32/libm.a(lib_a-s_frexp.o)
 .gnu.attributes
                0x00000000000000c0       0x10 /usr/local/xenon/xenon/lib/32/libm.a(lib_a-s_modf.o)
 .gnu.attributes
                0x00000000000000d0       0x10 /usr/local/xenon/xenon/lib/32/libm.a(lib_a-s_trunc.o)
 .gnu.attributes
                0x00000000000000e0       0x10 /usr/local/xenon/xenon/lib/32/libm.a(lib_a-w_pow.o)
 .gnu.attributes
                0x00000000000000f0       0x10 /usr/local/xenon/xenon/lib/32/libm.a(lib_a-e_pow.o)
 .gnu.attributes
                0x0000000000000100       0x10 /usr/local/xenon/xenon/lib/32/libm.a(lib_a-e_sqrt.o)
 .gnu.attributes
                0x0000000000000110       0x10 /usr/local/xenon/xenon/lib/32/libm.a(lib_a-s_fabs.o)
 .gnu.attributes
                0x0000000000000120       0x10 /usr/local/xenon/xenon/lib/32/libm.a(lib_a-s_finite.o)
 .gnu.attributes
                0x0000000000000130       0x10 /usr/local/xenon/xenon/lib/32/libm.a(lib_a-s_isnand.o)
 .gnu.attributes
                0x0000000000000140       0x10 /usr/local/xenon/xenon/lib/32/libm.a(lib_a-s_nan.o)
 .gnu.attributes
                0x0000000000000150       0x10 /usr/local/xenon/xenon/lib/32/libm.a(lib_a-s_rint.o)
 .gnu.attributes
                0x0000000000000160       0x10 /usr/local/xenon/xenon/lib/32/libm.a(lib_a-s_scalbn.o)
 .gnu.attributes
                0x0000000000000170       0x10 /usr/local/xenon/xenon/lib/32/libm.a(lib_a-s_copysign.o)
 .gnu.attributes
                0x0000000000000180       0x10 /usr/local/xenon/xenon/lib/32/libc.a(lib_a-atof.o)
 .gnu.attributes
                0x0000000000000190       0x10 /usr/local/xenon/xenon/lib/32/libc.a(lib_a-fiprintf.o)
 .gnu.attributes
                0x00000000000001a0       0x10 /usr/local/xenon/xenon/lib/32/libc.a(lib_a-fprintf.o)
 .gnu.attributes
                0x00000000000001b0       0x10 /usr/local/xenon/xenon/lib/32/libc.a(lib_a-printf.o)
 .gnu.attributes
                0x00000000000001c0       0x10 /usr/local/xenon/xenon/lib/32/libc.a(lib_a-snprintf.o)
 .gnu.attributes
                0x00000000000001d0       0x10 /usr/local/xenon/xenon/lib/32/libc.a(lib_a-sprintf.o)
 .gnu.attributes
                0x00000000000001e0       0x10 /usr/local/xenon/xenon/lib/32/libc.a(lib_a-strtod.o)
 .gnu.attributes
                0x00000000000001f0       0x10 /usr/local/xenon/xenon/lib/32/libc.a(lib_a-svfprintf.o)
 .gnu.attributes
                0x0000000000000200       0x10 /usr/local/xenon/xenon/lib/32/libc.a(lib_a-vfprintf.o)
 .gnu.attributes
                0x0000000000000210       0x10 /usr/local/xenon/xenon/lib/32/libc.a(lib_a-dtoa.o)
 .gnu.attributes
                0x0000000000000220       0x10 /usr/local/xenon/xenon/lib/32/libc.a(lib_a-mprec.o)
 .gnu.attributes
                0x0000000000000230       0x10 /usr/local/xenon/xenon/lib/32/libc.a(lib_a-sf_nan.o)
 .gnu.attributes
                0x0000000000000240       0x10 /usr/local/xenon/xenon/lib/32/libc.a(lib_a-s_isinfd.o)

.debug_frame    0x0000000000000000     0x6cb0
 .debug_frame   0x0000000000000000       0x2c /usr/local/xenon/lib/gcc/xenon/4.6.0/../../../../xenon/lib/../lib/crt1.o
 .debug_frame   0x000000000000002c      0x1c4 /usr/local/xenon/usr/lib/libxenon.a(ata.o)
 .debug_frame   0x00000000000001f0       0x50 /usr/local/xenon/usr/lib/libxenon.a(input.o)
 .debug_frame   0x0000000000000240      0x270 /usr/local/xenon/usr/lib/libxenon.a(newlib.o)
 .debug_frame   0x00000000000004b0       0x60 /usr/local/xenon/usr/lib/libxenon.a(time.o)
 .debug_frame   0x0000000000000510       0x94 /usr/local/xenon/usr/lib/libxenon.a(usbmain.o)
 .debug_frame   0x00000000000005a4      0x76c /usr/local/xenon/usr/lib/libxenon.a(tinyehci.o)
 .debug_frame   0x0000000000000d10      0x1cc /usr/local/xenon/usr/lib/libxenon.a(xenon_smc.o)
 .debug_frame   0x0000000000000edc       0x5c /usr/local/xenon/usr/lib/libxenon.a(xenon_uart.o)
 .debug_frame   0x0000000000000f38      0x24c /usr/local/xenon/usr/lib/libxenon.a(edram.o)
 .debug_frame   0x0000000000001184      0xe1c /usr/local/xenon/usr/lib/libxenon.a(xe.o)
 .debug_frame   0x0000000000001fa0      0x1c4 /usr/local/xenon/usr/lib/libxenon.a(xenos.o)
 .debug_frame   0x0000000000002164       0xbc /usr/local/xenon/usr/lib/libxenon.a(diskio.o)
 .debug_frame   0x0000000000002220      0x158 /usr/local/xenon/usr/lib/libxenon.a(fat.o)
 .debug_frame   0x0000000000002378      0x4fc /usr/local/xenon/usr/lib/libxenon.a(fat_rb.o)
 .debug_frame   0x0000000000002874      0x1c8 /usr/local/xenon/usr/lib/libxenon.a(file_rb.o)
 .debug_frame   0x0000000000002a3c       0xc4 /usr/local/xenon/usr/lib/libxenon.a(dir_rb.o)
 .debug_frame   0x0000000000002b00      0x250 /usr/local/xenon/usr/lib/libxenon.a(iso9660.o)
 .debug_frame   0x0000000000002d50       0xc4 /usr/local/xenon/usr/lib/libxenon.a(lib_malloc.o)
 .debug_frame   0x0000000000002e14       0x50 /usr/local/xenon/usr/lib/libxenon.a(io.o)
 .debug_frame   0x0000000000002e64      0x208 /usr/local/xenon/usr/lib/libxenon.a(ohci.o)
 .debug_frame   0x000000000000306c      0x3a0 /usr/local/xenon/usr/lib/libxenon.a(usbd.o)
 .debug_frame   0x000000000000340c       0x34 /usr/local/xenon/usr/lib/libxenon.a(usbdevs.o)
 .debug_frame   0x0000000000003440       0x88 /usr/local/xenon/usr/lib/libxenon.a(usbhid.o)
 .debug_frame   0x00000000000034c8      0x17c /usr/local/xenon/usr/lib/libxenon.a(usbhub.o)
 .debug_frame   0x0000000000003644      0x160 /usr/local/xenon/usr/lib/libxenon.a(usb_os.o)
 .debug_frame   0x00000000000037a4       0x90 /usr/local/xenon/usr/lib/libxenon.a(unicode_rb.o)
 .debug_frame   0x0000000000003834       0x70 /usr/local/xenon/usr/lib/libxenon.a(xenon_gpio.o)
 .debug_frame   0x00000000000038a4       0x78 /usr/local/xenon/usr/lib/libxenon.a(xenon_config.o)
 .debug_frame   0x000000000000391c       0xe4 /usr/local/xenon/usr/lib/libxenon.a(disk_rb.o)
 .debug_frame   0x0000000000003a00       0x88 /usr/local/xenon/usr/lib/libxenon.a(lib_queue.o)
 .debug_frame   0x0000000000003a88       0x78 /usr/local/xenon/usr/lib/libxenon.a(usbctrl.o)
 .debug_frame   0x0000000000003b00       0xdc /usr/local/xenon/usr/lib/libxenon.a(usbdebug.o)
 .debug_frame   0x0000000000003bdc      0x190 /usr/local/xenon/usr/lib/libxenon.a(xenon_sfcx.o)
 .debug_frame   0x0000000000003d6c      0x840 /usr/local/xenon/lib/gcc/xenon/4.6.0/../../../../xenon/lib/../lib/libstdc++.a(cp-demangle.o)
 .debug_frame   0x00000000000045ac       0x3c /usr/local/xenon/xenon/lib/32/libm.a(lib_a-s_floor.o)
 .debug_frame   0x00000000000045e8       0x34 /usr/local/xenon/xenon/lib/32/libm.a(lib_a-s_frexp.o)
 .debug_frame   0x000000000000461c       0x38 /usr/local/xenon/xenon/lib/32/libm.a(lib_a-s_modf.o)
 .debug_frame   0x0000000000004654       0x34 /usr/local/xenon/xenon/lib/32/libm.a(lib_a-s_trunc.o)
 .debug_frame   0x0000000000004688       0x68 /usr/local/xenon/xenon/lib/32/libm.a(lib_a-w_pow.o)
 .debug_frame   0x00000000000046f0       0x6c /usr/local/xenon/xenon/lib/32/libm.a(lib_a-e_pow.o)
 .debug_frame   0x000000000000475c       0x40 /usr/local/xenon/xenon/lib/32/libm.a(lib_a-e_sqrt.o)
 .debug_frame   0x000000000000479c       0x28 /usr/local/xenon/xenon/lib/32/libm.a(lib_a-s_fabs.o)
 .debug_frame   0x00000000000047c4       0x28 /usr/local/xenon/xenon/lib/32/libm.a(lib_a-s_finite.o)
 .debug_frame   0x00000000000047ec       0x28 /usr/local/xenon/xenon/lib/32/libm.a(lib_a-s_isnand.o)
 .debug_frame   0x0000000000004814       0x20 /usr/local/xenon/xenon/lib/32/libm.a(lib_a-s_matherr.o)
 .debug_frame   0x0000000000004834       0x28 /usr/local/xenon/xenon/lib/32/libm.a(lib_a-s_nan.o)
 .debug_frame   0x000000000000485c       0x3c /usr/local/xenon/xenon/lib/32/libm.a(lib_a-s_rint.o)
 .debug_frame   0x0000000000004898       0x54 /usr/local/xenon/xenon/lib/32/libm.a(lib_a-s_scalbn.o)
 .debug_frame   0x00000000000048ec       0x28 /usr/local/xenon/xenon/lib/32/libm.a(lib_a-s_copysign.o)
 .debug_frame   0x0000000000004914       0x28 /usr/local/xenon/xenon/lib/32/libc.a(lib_a-abort.o)
 .debug_frame   0x000000000000493c       0x48 /usr/local/xenon/xenon/lib/32/libc.a(lib_a-assert.o)
 .debug_frame   0x0000000000004984       0x2c /usr/local/xenon/xenon/lib/32/libc.a(lib_a-atof.o)
 .debug_frame   0x00000000000049b0       0x48 /usr/local/xenon/xenon/lib/32/libc.a(lib_a-atoi.o)
 .debug_frame   0x00000000000049f8       0x2c /usr/local/xenon/xenon/lib/32/libc.a(lib_a-cxa_atexit.o)
 .debug_frame   0x0000000000004a24       0x34 /usr/local/xenon/xenon/lib/32/libc.a(lib_a-errno.o)
 .debug_frame   0x0000000000004a58       0x30 /usr/local/xenon/xenon/lib/32/libc.a(lib_a-exit.o)
 .debug_frame   0x0000000000004a88       0x70 /usr/local/xenon/xenon/lib/32/libc.a(lib_a-fclose.o)
 .debug_frame   0x0000000000004af8       0x88 /usr/local/xenon/xenon/lib/32/libc.a(lib_a-fflush.o)
 .debug_frame   0x0000000000004b80      0x1ac /usr/local/xenon/xenon/lib/32/libc.a(lib_a-findfp.o)
 .debug_frame   0x0000000000004d2c       0x50 /usr/local/xenon/xenon/lib/32/libc.a(lib_a-fiprintf.o)
 .debug_frame   0x0000000000004d7c       0x74 /usr/local/xenon/xenon/lib/32/libc.a(lib_a-fopen.o)
 .debug_frame   0x0000000000004df0       0x50 /usr/local/xenon/xenon/lib/32/libc.a(lib_a-fprintf.o)
 .debug_frame   0x0000000000004e40       0x5c /usr/local/xenon/xenon/lib/32/libc.a(lib_a-fputc.o)
 .debug_frame   0x0000000000004e9c       0x60 /usr/local/xenon/xenon/lib/32/libc.a(lib_a-fputs.o)
 .debug_frame   0x0000000000004efc       0x7c /usr/local/xenon/xenon/lib/32/libc.a(lib_a-fread.o)
 .debug_frame   0x0000000000004f78       0x7c /usr/local/xenon/xenon/lib/32/libc.a(lib_a-freer.o)
 .debug_frame   0x0000000000004ff4       0x84 /usr/local/xenon/xenon/lib/32/libc.a(lib_a-fseek.o)
 .debug_frame   0x0000000000005078       0x44 /usr/local/xenon/xenon/lib/32/libc.a(lib_a-fstatr.o)
 .debug_frame   0x00000000000050bc       0x68 /usr/local/xenon/xenon/lib/32/libc.a(lib_a-ftell.o)
 .debug_frame   0x0000000000005124       0x5c /usr/local/xenon/xenon/lib/32/libc.a(lib_a-fvwrite.o)
 .debug_frame   0x0000000000005180       0x74 /usr/local/xenon/xenon/lib/32/libc.a(lib_a-fwalk.o)
 .debug_frame   0x00000000000051f4       0x68 /usr/local/xenon/xenon/lib/32/libc.a(lib_a-fwrite.o)
 .debug_frame   0x000000000000525c       0x5c /usr/local/xenon/xenon/lib/32/libc.a(lib_a-makebuf.o)
 .debug_frame   0x00000000000052b8       0x34 /usr/local/xenon/xenon/lib/32/libc.a(lib_a-malign.o)
 .debug_frame   0x00000000000052ec       0x64 /usr/local/xenon/xenon/lib/32/libc.a(lib_a-malignr.o)
 .debug_frame   0x0000000000005350       0x58 /usr/local/xenon/xenon/lib/32/libc.a(lib_a-malloc.o)
 .debug_frame   0x00000000000053a8       0x84 /usr/local/xenon/xenon/lib/32/libc.a(lib_a-mallocr.o)
 .debug_frame   0x000000000000542c       0x34 /usr/local/xenon/xenon/lib/32/libc.a(lib_a-memchr.o)
 .debug_frame   0x0000000000005460       0x38 /usr/local/xenon/xenon/lib/32/libc.a(lib_a-memcmp.o)
 .debug_frame   0x0000000000005498       0x34 /usr/local/xenon/xenon/lib/32/libc.a(lib_a-memcpy.o)
 .debug_frame   0x00000000000054cc       0x3c /usr/local/xenon/xenon/lib/32/libc.a(lib_a-memmove.o)
 .debug_frame   0x0000000000005508       0x34 /usr/local/xenon/xenon/lib/32/libc.a(lib_a-memset.o)
 .debug_frame   0x000000000000553c       0x30 /usr/local/xenon/xenon/lib/32/libc.a(lib_a-mlock.o)
 .debug_frame   0x000000000000556c       0x44 /usr/local/xenon/xenon/lib/32/libc.a(lib_a-openr.o)
 .debug_frame   0x00000000000055b0       0x50 /usr/local/xenon/xenon/lib/32/libc.a(lib_a-printf.o)
 .debug_frame   0x0000000000005600       0x50 /usr/local/xenon/xenon/lib/32/libc.a(lib_a-putchar.o)
 .debug_frame   0x0000000000005650       0x78 /usr/local/xenon/xenon/lib/32/libc.a(lib_a-putc.o)
 .debug_frame   0x00000000000056c8       0x60 /usr/local/xenon/xenon/lib/32/libc.a(lib_a-puts.o)
 .debug_frame   0x0000000000005728       0x58 /usr/local/xenon/xenon/lib/32/libc.a(lib_a-rand.o)
 .debug_frame   0x0000000000005780       0x34 /usr/local/xenon/xenon/lib/32/libc.a(lib_a-realloc.o)
 .debug_frame   0x00000000000057b4       0x5c /usr/local/xenon/xenon/lib/32/libc.a(lib_a-reallocr.o)
 .debug_frame   0x0000000000005810       0xa4 /usr/local/xenon/xenon/lib/32/libc.a(lib_a-reent.o)
 .debug_frame   0x00000000000058b4       0x74 /usr/local/xenon/xenon/lib/32/libc.a(lib_a-refill.o)
 .debug_frame   0x0000000000005928       0x44 /usr/local/xenon/xenon/lib/32/libc.a(lib_a-sbrkr.o)
 .debug_frame   0x000000000000596c      0x154 /usr/local/xenon/xenon/lib/32/libc.a(lib_a-signal.o)
 .debug_frame   0x0000000000005ac0       0x60 /usr/local/xenon/xenon/lib/32/libc.a(lib_a-signalr.o)
 .debug_frame   0x0000000000005b20       0x74 /usr/local/xenon/xenon/lib/32/libc.a(lib_a-snprintf.o)
 .debug_frame   0x0000000000005b94       0x58 /usr/local/xenon/xenon/lib/32/libc.a(lib_a-sprintf.o)
 .debug_frame   0x0000000000005bec       0xa0 /usr/local/xenon/xenon/lib/32/libc.a(lib_a-stdio.o)
 .debug_frame   0x0000000000005c8c       0x34 /usr/local/xenon/xenon/lib/32/libc.a(lib_a-strcasecmp.o)
 .debug_frame   0x0000000000005cc0       0x34 /usr/local/xenon/xenon/lib/32/libc.a(lib_a-strcat.o)
 .debug_frame   0x0000000000005cf4       0x38 /usr/local/xenon/xenon/lib/32/libc.a(lib_a-strchr.o)
 .debug_frame   0x0000000000005d2c       0x34 /usr/local/xenon/xenon/lib/32/libc.a(lib_a-strcmp.o)
 .debug_frame   0x0000000000005d60       0x30 /usr/local/xenon/xenon/lib/32/libc.a(lib_a-strcpy.o)
 .debug_frame   0x0000000000005d90       0x34 /usr/local/xenon/xenon/lib/32/libc.a(lib_a-strlcpy.o)
 .debug_frame   0x0000000000005dc4       0x38 /usr/local/xenon/xenon/lib/32/libc.a(lib_a-strlen.o)
 .debug_frame   0x0000000000005dfc       0x40 /usr/local/xenon/xenon/lib/32/libc.a(lib_a-strncasecmp.o)
 .debug_frame   0x0000000000005e3c       0x38 /usr/local/xenon/xenon/lib/32/libc.a(lib_a-strncmp.o)
 .debug_frame   0x0000000000005e74       0x30 /usr/local/xenon/xenon/lib/32/libc.a(lib_a-strncpy.o)
 .debug_frame   0x0000000000005ea4       0x44 /usr/local/xenon/xenon/lib/32/libc.a(lib_a-strrchr.o)
 .debug_frame   0x0000000000005ee8       0xfc /usr/local/xenon/xenon/lib/32/libc.a(lib_a-strtod.o)
 .debug_frame   0x0000000000005fe4       0x58 /usr/local/xenon/xenon/lib/32/libc.a(lib_a-strtok_r.o)
 .debug_frame   0x000000000000603c       0x6c /usr/local/xenon/xenon/lib/32/libc.a(lib_a-strtol.o)
 .debug_frame   0x00000000000060a8       0xe8 /usr/local/xenon/xenon/lib/32/libc.a(lib_a-svfprintf.o)
 .debug_frame   0x0000000000006190       0xc0 /usr/local/xenon/xenon/lib/32/libc.a(lib_a-vfiprintf.o)
 .debug_frame   0x0000000000006250       0xc8 /usr/local/xenon/xenon/lib/32/libc.a(lib_a-vfprintf.o)
 .debug_frame   0x0000000000006318       0x50 /usr/local/xenon/xenon/lib/32/libc.a(lib_a-vprintf.o)
 .debug_frame   0x0000000000006368       0x50 /usr/local/xenon/xenon/lib/32/libc.a(lib_a-vsprintf.o)
 .debug_frame   0x00000000000063b8       0x68 /usr/local/xenon/xenon/lib/32/libc.a(lib_a-wbuf.o)
 .debug_frame   0x0000000000006420       0x44 /usr/local/xenon/xenon/lib/32/libc.a(lib_a-writer.o)
 .debug_frame   0x0000000000006464       0x3c /usr/local/xenon/xenon/lib/32/libc.a(lib_a-wsetup.o)
 .debug_frame   0x00000000000064a0       0x3c /usr/local/xenon/xenon/lib/32/libc.a(lib_a-__atexit.o)
 .debug_frame   0x00000000000064dc       0x64 /usr/local/xenon/xenon/lib/32/libc.a(lib_a-__call_atexit.o)
 .debug_frame   0x0000000000006540       0x44 /usr/local/xenon/xenon/lib/32/libc.a(lib_a-closer.o)
 .debug_frame   0x0000000000006584       0xb4 /usr/local/xenon/xenon/lib/32/libc.a(lib_a-dtoa.o)
 .debug_frame   0x0000000000006638       0x20 /usr/local/xenon/xenon/lib/32/libc.a(lib_a-flags.o)
 .debug_frame   0x0000000000006658       0xa8 /usr/local/xenon/xenon/lib/32/libc.a(lib_a-gdtoa-gethex.o)
 .debug_frame   0x0000000000006700       0x5c /usr/local/xenon/xenon/lib/32/libc.a(lib_a-gdtoa-hexnan.o)
 .debug_frame   0x000000000000675c       0x44 /usr/local/xenon/xenon/lib/32/libc.a(lib_a-isattyr.o)
 .debug_frame   0x00000000000067a0       0xd4 /usr/local/xenon/xenon/lib/32/libc.a(lib_a-locale.o)
 .debug_frame   0x0000000000006874       0x44 /usr/local/xenon/xenon/lib/32/libc.a(lib_a-lseekr.o)
 .debug_frame   0x00000000000068b8      0x324 /usr/local/xenon/xenon/lib/32/libc.a(lib_a-mprec.o)
 .debug_frame   0x0000000000006bdc       0x44 /usr/local/xenon/xenon/lib/32/libc.a(lib_a-readr.o)
 .debug_frame   0x0000000000006c20       0x34 /usr/local/xenon/xenon/lib/32/libc.a(lib_a-sf_nan.o)
 .debug_frame   0x0000000000006c54       0x28 /usr/local/xenon/xenon/lib/32/libc.a(lib_a-s_isinfd.o)
 .debug_frame   0x0000000000006c7c       0x34 /usr/local/xenon/xenon/lib/32/libc.a(lib_a-callocr.o)
